ARM GAS  /tmp/cc5fbsfm.s 			page 1


   1              		.cpu cortex-m4
   2              		.eabi_attribute 27, 1
   3              		.eabi_attribute 28, 1
   4              		.eabi_attribute 20, 1
   5              		.eabi_attribute 21, 1
   6              		.eabi_attribute 23, 3
   7              		.eabi_attribute 24, 1
   8              		.eabi_attribute 25, 1
   9              		.eabi_attribute 26, 1
  10              		.eabi_attribute 30, 1
  11              		.eabi_attribute 34, 1
  12              		.eabi_attribute 18, 4
  13              		.file	"tusb_fifo.c"
  14              		.text
  15              	.Ltext0:
  16              		.cfi_sections	.debug_frame
  17              		.section	.text.advance_index,"ax",%progbits
  18              		.align	1
  19              		.arch armv7e-m
  20              		.syntax unified
  21              		.thumb
  22              		.thumb_func
  23              		.fpu fpv4-sp-d16
  25              	advance_index:
  26              	.LVL0:
  27              	.LFB67:
  28              		.file 1 "tinyusb/src/common/tusb_fifo.c"
   1:tinyusb/src/common/tusb_fifo.c **** /*
   2:tinyusb/src/common/tusb_fifo.c ****  * The MIT License (MIT)
   3:tinyusb/src/common/tusb_fifo.c ****  *
   4:tinyusb/src/common/tusb_fifo.c ****  * Copyright (c) 2019 Ha Thach (tinyusb.org)
   5:tinyusb/src/common/tusb_fifo.c ****  * Copyright (c) 2020 Reinhard Panhuber - rework to unmasked pointers
   6:tinyusb/src/common/tusb_fifo.c ****  *
   7:tinyusb/src/common/tusb_fifo.c ****  * Permission is hereby granted, free of charge, to any person obtaining a copy
   8:tinyusb/src/common/tusb_fifo.c ****  * of this software and associated documentation files (the "Software"), to deal
   9:tinyusb/src/common/tusb_fifo.c ****  * in the Software without restriction, including without limitation the rights
  10:tinyusb/src/common/tusb_fifo.c ****  * to use, copy, modify, merge, publish, distribute, sublicense, and/or sell
  11:tinyusb/src/common/tusb_fifo.c ****  * copies of the Software, and to permit persons to whom the Software is
  12:tinyusb/src/common/tusb_fifo.c ****  * furnished to do so, subject to the following conditions:
  13:tinyusb/src/common/tusb_fifo.c ****  *
  14:tinyusb/src/common/tusb_fifo.c ****  * The above copyright notice and this permission notice shall be included in
  15:tinyusb/src/common/tusb_fifo.c ****  * all copies or substantial portions of the Software.
  16:tinyusb/src/common/tusb_fifo.c ****  *
  17:tinyusb/src/common/tusb_fifo.c ****  * THE SOFTWARE IS PROVIDED "AS IS", WITHOUT WARRANTY OF ANY KIND, EXPRESS OR
  18:tinyusb/src/common/tusb_fifo.c ****  * IMPLIED, INCLUDING BUT NOT LIMITED TO THE WARRANTIES OF MERCHANTABILITY,
  19:tinyusb/src/common/tusb_fifo.c ****  * FITNESS FOR A PARTICULAR PURPOSE AND NONINFRINGEMENT. IN NO EVENT SHALL THE
  20:tinyusb/src/common/tusb_fifo.c ****  * AUTHORS OR COPYRIGHT HOLDERS BE LIABLE FOR ANY CLAIM, DAMAGES OR OTHER
  21:tinyusb/src/common/tusb_fifo.c ****  * LIABILITY, WHETHER IN AN ACTION OF CONTRACT, TORT OR OTHERWISE, ARISING FROM,
  22:tinyusb/src/common/tusb_fifo.c ****  * OUT OF OR IN CONNECTION WITH THE SOFTWARE OR THE USE OR OTHER DEALINGS IN
  23:tinyusb/src/common/tusb_fifo.c ****  * THE SOFTWARE.
  24:tinyusb/src/common/tusb_fifo.c ****  *
  25:tinyusb/src/common/tusb_fifo.c ****  * This file is part of the TinyUSB stack.
  26:tinyusb/src/common/tusb_fifo.c ****  */
  27:tinyusb/src/common/tusb_fifo.c **** 
  28:tinyusb/src/common/tusb_fifo.c **** #include "osal/osal.h"
  29:tinyusb/src/common/tusb_fifo.c **** #include "tusb_fifo.h"
  30:tinyusb/src/common/tusb_fifo.c **** 
ARM GAS  /tmp/cc5fbsfm.s 			page 2


  31:tinyusb/src/common/tusb_fifo.c **** #define TU_FIFO_DBG   0
  32:tinyusb/src/common/tusb_fifo.c **** 
  33:tinyusb/src/common/tusb_fifo.c **** // Suppress IAR warning
  34:tinyusb/src/common/tusb_fifo.c **** // Warning[Pa082]: undefined behavior: the order of volatile accesses is undefined in this statemen
  35:tinyusb/src/common/tusb_fifo.c **** #if defined(__ICCARM__)
  36:tinyusb/src/common/tusb_fifo.c **** #pragma diag_suppress = Pa082
  37:tinyusb/src/common/tusb_fifo.c **** #endif
  38:tinyusb/src/common/tusb_fifo.c **** 
  39:tinyusb/src/common/tusb_fifo.c **** #if OSAL_MUTEX_REQUIRED
  40:tinyusb/src/common/tusb_fifo.c **** 
  41:tinyusb/src/common/tusb_fifo.c **** TU_ATTR_ALWAYS_INLINE static inline void _ff_lock(osal_mutex_t mutex)
  42:tinyusb/src/common/tusb_fifo.c **** {
  43:tinyusb/src/common/tusb_fifo.c ****   if (mutex) osal_mutex_lock(mutex, OSAL_TIMEOUT_WAIT_FOREVER);
  44:tinyusb/src/common/tusb_fifo.c **** }
  45:tinyusb/src/common/tusb_fifo.c **** 
  46:tinyusb/src/common/tusb_fifo.c **** TU_ATTR_ALWAYS_INLINE static inline void _ff_unlock(osal_mutex_t mutex)
  47:tinyusb/src/common/tusb_fifo.c **** {
  48:tinyusb/src/common/tusb_fifo.c ****   if (mutex) osal_mutex_unlock(mutex);
  49:tinyusb/src/common/tusb_fifo.c **** }
  50:tinyusb/src/common/tusb_fifo.c **** 
  51:tinyusb/src/common/tusb_fifo.c **** #else
  52:tinyusb/src/common/tusb_fifo.c **** 
  53:tinyusb/src/common/tusb_fifo.c **** #define _ff_lock(_mutex)
  54:tinyusb/src/common/tusb_fifo.c **** #define _ff_unlock(_mutex)
  55:tinyusb/src/common/tusb_fifo.c **** 
  56:tinyusb/src/common/tusb_fifo.c **** #endif
  57:tinyusb/src/common/tusb_fifo.c **** 
  58:tinyusb/src/common/tusb_fifo.c **** /** \enum tu_fifo_copy_mode_t
  59:tinyusb/src/common/tusb_fifo.c ****  * \brief Write modes intended to allow special read and write functions to be able to
  60:tinyusb/src/common/tusb_fifo.c ****  *        copy data to and from USB hardware FIFOs as needed for e.g. STM32s and others
  61:tinyusb/src/common/tusb_fifo.c ****  */
  62:tinyusb/src/common/tusb_fifo.c **** typedef enum
  63:tinyusb/src/common/tusb_fifo.c **** {
  64:tinyusb/src/common/tusb_fifo.c ****   TU_FIFO_COPY_INC,            ///< Copy from/to an increasing source/destination address - default
  65:tinyusb/src/common/tusb_fifo.c ****   TU_FIFO_COPY_CST_FULL_WORDS, ///< Copy from/to a constant source/destination address - required f
  66:tinyusb/src/common/tusb_fifo.c **** } tu_fifo_copy_mode_t;
  67:tinyusb/src/common/tusb_fifo.c **** 
  68:tinyusb/src/common/tusb_fifo.c **** bool tu_fifo_config(tu_fifo_t *f, void* buffer, uint16_t depth, uint16_t item_size, bool overwritab
  69:tinyusb/src/common/tusb_fifo.c **** {
  70:tinyusb/src/common/tusb_fifo.c ****   // Limit index space to 2*depth - this allows for a fast "modulo" calculation
  71:tinyusb/src/common/tusb_fifo.c ****   // but limits the maximum depth to 2^16/2 = 2^15 and buffer overflows are detectable
  72:tinyusb/src/common/tusb_fifo.c ****   // only if overflow happens once (important for unsupervised DMA applications)
  73:tinyusb/src/common/tusb_fifo.c ****   if (depth > 0x8000) return false;
  74:tinyusb/src/common/tusb_fifo.c **** 
  75:tinyusb/src/common/tusb_fifo.c ****   _ff_lock(f->mutex_wr);
  76:tinyusb/src/common/tusb_fifo.c ****   _ff_lock(f->mutex_rd);
  77:tinyusb/src/common/tusb_fifo.c **** 
  78:tinyusb/src/common/tusb_fifo.c ****   f->buffer       = (uint8_t*) buffer;
  79:tinyusb/src/common/tusb_fifo.c ****   f->depth        = depth;
  80:tinyusb/src/common/tusb_fifo.c ****   f->item_size    = (uint16_t) (item_size & 0x7FFF);
  81:tinyusb/src/common/tusb_fifo.c ****   f->overwritable = overwritable;
  82:tinyusb/src/common/tusb_fifo.c ****   f->rd_idx       = 0;
  83:tinyusb/src/common/tusb_fifo.c ****   f->wr_idx       = 0;
  84:tinyusb/src/common/tusb_fifo.c **** 
  85:tinyusb/src/common/tusb_fifo.c ****   _ff_unlock(f->mutex_wr);
  86:tinyusb/src/common/tusb_fifo.c ****   _ff_unlock(f->mutex_rd);
  87:tinyusb/src/common/tusb_fifo.c **** 
ARM GAS  /tmp/cc5fbsfm.s 			page 3


  88:tinyusb/src/common/tusb_fifo.c ****   return true;
  89:tinyusb/src/common/tusb_fifo.c **** }
  90:tinyusb/src/common/tusb_fifo.c **** 
  91:tinyusb/src/common/tusb_fifo.c **** //--------------------------------------------------------------------+
  92:tinyusb/src/common/tusb_fifo.c **** // Pull & Push
  93:tinyusb/src/common/tusb_fifo.c **** //--------------------------------------------------------------------+
  94:tinyusb/src/common/tusb_fifo.c **** 
  95:tinyusb/src/common/tusb_fifo.c **** // Intended to be used to read from hardware USB FIFO in e.g. STM32 where all data is read from a c
  96:tinyusb/src/common/tusb_fifo.c **** // Code adapted from dcd_synopsys.c
  97:tinyusb/src/common/tusb_fifo.c **** // TODO generalize with configurable 1 byte or 4 byte each read
  98:tinyusb/src/common/tusb_fifo.c **** static void _ff_push_const_addr(uint8_t * ff_buf, const void * app_buf, uint16_t len)
  99:tinyusb/src/common/tusb_fifo.c **** {
 100:tinyusb/src/common/tusb_fifo.c ****   volatile const uint32_t * reg_rx = (volatile const uint32_t *) app_buf;
 101:tinyusb/src/common/tusb_fifo.c **** 
 102:tinyusb/src/common/tusb_fifo.c ****   // Reading full available 32 bit words from const app address
 103:tinyusb/src/common/tusb_fifo.c ****   uint16_t full_words = len >> 2;
 104:tinyusb/src/common/tusb_fifo.c ****   while(full_words--)
 105:tinyusb/src/common/tusb_fifo.c ****   {
 106:tinyusb/src/common/tusb_fifo.c ****     tu_unaligned_write32(ff_buf, *reg_rx);
 107:tinyusb/src/common/tusb_fifo.c ****     ff_buf += 4;
 108:tinyusb/src/common/tusb_fifo.c ****   }
 109:tinyusb/src/common/tusb_fifo.c **** 
 110:tinyusb/src/common/tusb_fifo.c ****   // Read the remaining 1-3 bytes from const app address
 111:tinyusb/src/common/tusb_fifo.c ****   uint8_t const bytes_rem = len & 0x03;
 112:tinyusb/src/common/tusb_fifo.c ****   if ( bytes_rem )
 113:tinyusb/src/common/tusb_fifo.c ****   {
 114:tinyusb/src/common/tusb_fifo.c ****     uint32_t tmp32 = *reg_rx;
 115:tinyusb/src/common/tusb_fifo.c ****     memcpy(ff_buf, &tmp32, bytes_rem);
 116:tinyusb/src/common/tusb_fifo.c ****   }
 117:tinyusb/src/common/tusb_fifo.c **** }
 118:tinyusb/src/common/tusb_fifo.c **** 
 119:tinyusb/src/common/tusb_fifo.c **** // Intended to be used to write to hardware USB FIFO in e.g. STM32
 120:tinyusb/src/common/tusb_fifo.c **** // where all data is written to a constant address in full word copies
 121:tinyusb/src/common/tusb_fifo.c **** static void _ff_pull_const_addr(void * app_buf, const uint8_t * ff_buf, uint16_t len)
 122:tinyusb/src/common/tusb_fifo.c **** {
 123:tinyusb/src/common/tusb_fifo.c ****   volatile uint32_t * reg_tx = (volatile uint32_t *) app_buf;
 124:tinyusb/src/common/tusb_fifo.c **** 
 125:tinyusb/src/common/tusb_fifo.c ****   // Write full available 32 bit words to const address
 126:tinyusb/src/common/tusb_fifo.c ****   uint16_t full_words = len >> 2;
 127:tinyusb/src/common/tusb_fifo.c ****   while(full_words--)
 128:tinyusb/src/common/tusb_fifo.c ****   {
 129:tinyusb/src/common/tusb_fifo.c ****     *reg_tx = tu_unaligned_read32(ff_buf);
 130:tinyusb/src/common/tusb_fifo.c ****     ff_buf += 4;
 131:tinyusb/src/common/tusb_fifo.c ****   }
 132:tinyusb/src/common/tusb_fifo.c **** 
 133:tinyusb/src/common/tusb_fifo.c ****   // Write the remaining 1-3 bytes into const address
 134:tinyusb/src/common/tusb_fifo.c ****   uint8_t const bytes_rem = len & 0x03;
 135:tinyusb/src/common/tusb_fifo.c ****   if ( bytes_rem )
 136:tinyusb/src/common/tusb_fifo.c ****   {
 137:tinyusb/src/common/tusb_fifo.c ****     uint32_t tmp32 = 0;
 138:tinyusb/src/common/tusb_fifo.c ****     memcpy(&tmp32, ff_buf, bytes_rem);
 139:tinyusb/src/common/tusb_fifo.c **** 
 140:tinyusb/src/common/tusb_fifo.c ****     *reg_tx = tmp32;
 141:tinyusb/src/common/tusb_fifo.c ****   }
 142:tinyusb/src/common/tusb_fifo.c **** }
 143:tinyusb/src/common/tusb_fifo.c **** 
 144:tinyusb/src/common/tusb_fifo.c **** // send one item to fifo WITHOUT updating write pointer
ARM GAS  /tmp/cc5fbsfm.s 			page 4


 145:tinyusb/src/common/tusb_fifo.c **** static inline void _ff_push(tu_fifo_t* f, void const * app_buf, uint16_t rel)
 146:tinyusb/src/common/tusb_fifo.c **** {
 147:tinyusb/src/common/tusb_fifo.c ****   memcpy(f->buffer + (rel * f->item_size), app_buf, f->item_size);
 148:tinyusb/src/common/tusb_fifo.c **** }
 149:tinyusb/src/common/tusb_fifo.c **** 
 150:tinyusb/src/common/tusb_fifo.c **** // send n items to fifo WITHOUT updating write pointer
 151:tinyusb/src/common/tusb_fifo.c **** static void _ff_push_n(tu_fifo_t* f, void const * app_buf, uint16_t n, uint16_t wr_ptr, tu_fifo_cop
 152:tinyusb/src/common/tusb_fifo.c **** {
 153:tinyusb/src/common/tusb_fifo.c ****   uint16_t const lin_count = f->depth - wr_ptr;
 154:tinyusb/src/common/tusb_fifo.c ****   uint16_t const wrap_count = n - lin_count;
 155:tinyusb/src/common/tusb_fifo.c **** 
 156:tinyusb/src/common/tusb_fifo.c ****   uint16_t lin_bytes = lin_count * f->item_size;
 157:tinyusb/src/common/tusb_fifo.c ****   uint16_t wrap_bytes = wrap_count * f->item_size;
 158:tinyusb/src/common/tusb_fifo.c **** 
 159:tinyusb/src/common/tusb_fifo.c ****   // current buffer of fifo
 160:tinyusb/src/common/tusb_fifo.c ****   uint8_t* ff_buf = f->buffer + (wr_ptr * f->item_size);
 161:tinyusb/src/common/tusb_fifo.c **** 
 162:tinyusb/src/common/tusb_fifo.c ****   switch (copy_mode)
 163:tinyusb/src/common/tusb_fifo.c ****   {
 164:tinyusb/src/common/tusb_fifo.c ****     case TU_FIFO_COPY_INC:
 165:tinyusb/src/common/tusb_fifo.c ****       if(n <= lin_count)
 166:tinyusb/src/common/tusb_fifo.c ****       {
 167:tinyusb/src/common/tusb_fifo.c ****         // Linear only
 168:tinyusb/src/common/tusb_fifo.c ****         memcpy(ff_buf, app_buf, n*f->item_size);
 169:tinyusb/src/common/tusb_fifo.c ****       }
 170:tinyusb/src/common/tusb_fifo.c ****       else
 171:tinyusb/src/common/tusb_fifo.c ****       {
 172:tinyusb/src/common/tusb_fifo.c ****         // Wrap around
 173:tinyusb/src/common/tusb_fifo.c **** 
 174:tinyusb/src/common/tusb_fifo.c ****         // Write data to linear part of buffer
 175:tinyusb/src/common/tusb_fifo.c ****         memcpy(ff_buf, app_buf, lin_bytes);
 176:tinyusb/src/common/tusb_fifo.c **** 
 177:tinyusb/src/common/tusb_fifo.c ****         // Write data wrapped around
 178:tinyusb/src/common/tusb_fifo.c ****         // TU_ASSERT(nWrap_bytes <= f->depth, );
 179:tinyusb/src/common/tusb_fifo.c ****         memcpy(f->buffer, ((uint8_t const*) app_buf) + lin_bytes, wrap_bytes);
 180:tinyusb/src/common/tusb_fifo.c ****       }
 181:tinyusb/src/common/tusb_fifo.c ****       break;
 182:tinyusb/src/common/tusb_fifo.c **** 
 183:tinyusb/src/common/tusb_fifo.c ****     case TU_FIFO_COPY_CST_FULL_WORDS:
 184:tinyusb/src/common/tusb_fifo.c ****       // Intended for hardware buffers from which it can be read word by word only
 185:tinyusb/src/common/tusb_fifo.c ****       if(n <= lin_count)
 186:tinyusb/src/common/tusb_fifo.c ****       {
 187:tinyusb/src/common/tusb_fifo.c ****         // Linear only
 188:tinyusb/src/common/tusb_fifo.c ****         _ff_push_const_addr(ff_buf, app_buf, n*f->item_size);
 189:tinyusb/src/common/tusb_fifo.c ****       }
 190:tinyusb/src/common/tusb_fifo.c ****       else
 191:tinyusb/src/common/tusb_fifo.c ****       {
 192:tinyusb/src/common/tusb_fifo.c ****         // Wrap around case
 193:tinyusb/src/common/tusb_fifo.c **** 
 194:tinyusb/src/common/tusb_fifo.c ****         // Write full words to linear part of buffer
 195:tinyusb/src/common/tusb_fifo.c ****         uint16_t nLin_4n_bytes = lin_bytes & 0xFFFC;
 196:tinyusb/src/common/tusb_fifo.c ****         _ff_push_const_addr(ff_buf, app_buf, nLin_4n_bytes);
 197:tinyusb/src/common/tusb_fifo.c ****         ff_buf += nLin_4n_bytes;
 198:tinyusb/src/common/tusb_fifo.c **** 
 199:tinyusb/src/common/tusb_fifo.c ****         // There could be odd 1-3 bytes before the wrap-around boundary
 200:tinyusb/src/common/tusb_fifo.c ****         uint8_t rem = lin_bytes & 0x03;
 201:tinyusb/src/common/tusb_fifo.c ****         if (rem > 0)
ARM GAS  /tmp/cc5fbsfm.s 			page 5


 202:tinyusb/src/common/tusb_fifo.c ****         {
 203:tinyusb/src/common/tusb_fifo.c ****           volatile const uint32_t * rx_fifo = (volatile const uint32_t *) app_buf;
 204:tinyusb/src/common/tusb_fifo.c **** 
 205:tinyusb/src/common/tusb_fifo.c ****           uint8_t remrem = (uint8_t) tu_min16(wrap_bytes, 4-rem);
 206:tinyusb/src/common/tusb_fifo.c ****           wrap_bytes -= remrem;
 207:tinyusb/src/common/tusb_fifo.c **** 
 208:tinyusb/src/common/tusb_fifo.c ****           uint32_t tmp32 = *rx_fifo;
 209:tinyusb/src/common/tusb_fifo.c ****           uint8_t * src_u8 = ((uint8_t *) &tmp32);
 210:tinyusb/src/common/tusb_fifo.c **** 
 211:tinyusb/src/common/tusb_fifo.c ****           // Write 1-3 bytes before wrapped boundary
 212:tinyusb/src/common/tusb_fifo.c ****           while(rem--) *ff_buf++ = *src_u8++;
 213:tinyusb/src/common/tusb_fifo.c **** 
 214:tinyusb/src/common/tusb_fifo.c ****           // Read more bytes to beginning to complete a word
 215:tinyusb/src/common/tusb_fifo.c ****           ff_buf = f->buffer;
 216:tinyusb/src/common/tusb_fifo.c ****           while(remrem--) *ff_buf++ = *src_u8++;
 217:tinyusb/src/common/tusb_fifo.c ****         }
 218:tinyusb/src/common/tusb_fifo.c ****         else
 219:tinyusb/src/common/tusb_fifo.c ****         {
 220:tinyusb/src/common/tusb_fifo.c ****           ff_buf = f->buffer; // wrap around to beginning
 221:tinyusb/src/common/tusb_fifo.c ****         }
 222:tinyusb/src/common/tusb_fifo.c **** 
 223:tinyusb/src/common/tusb_fifo.c ****         // Write data wrapped part
 224:tinyusb/src/common/tusb_fifo.c ****         if (wrap_bytes > 0) _ff_push_const_addr(ff_buf, app_buf, wrap_bytes);
 225:tinyusb/src/common/tusb_fifo.c ****       }
 226:tinyusb/src/common/tusb_fifo.c ****       break;
 227:tinyusb/src/common/tusb_fifo.c ****   }
 228:tinyusb/src/common/tusb_fifo.c **** }
 229:tinyusb/src/common/tusb_fifo.c **** 
 230:tinyusb/src/common/tusb_fifo.c **** // get one item from fifo WITHOUT updating read pointer
 231:tinyusb/src/common/tusb_fifo.c **** static inline void _ff_pull(tu_fifo_t* f, void * app_buf, uint16_t rel)
 232:tinyusb/src/common/tusb_fifo.c **** {
 233:tinyusb/src/common/tusb_fifo.c ****   memcpy(app_buf, f->buffer + (rel * f->item_size), f->item_size);
 234:tinyusb/src/common/tusb_fifo.c **** }
 235:tinyusb/src/common/tusb_fifo.c **** 
 236:tinyusb/src/common/tusb_fifo.c **** // get n items from fifo WITHOUT updating read pointer
 237:tinyusb/src/common/tusb_fifo.c **** static void _ff_pull_n(tu_fifo_t* f, void* app_buf, uint16_t n, uint16_t rd_ptr, tu_fifo_copy_mode_
 238:tinyusb/src/common/tusb_fifo.c **** {
 239:tinyusb/src/common/tusb_fifo.c ****   uint16_t const lin_count = f->depth - rd_ptr;
 240:tinyusb/src/common/tusb_fifo.c ****   uint16_t const wrap_count = n - lin_count; // only used if wrapped
 241:tinyusb/src/common/tusb_fifo.c **** 
 242:tinyusb/src/common/tusb_fifo.c ****   uint16_t lin_bytes = lin_count * f->item_size;
 243:tinyusb/src/common/tusb_fifo.c ****   uint16_t wrap_bytes = wrap_count * f->item_size;
 244:tinyusb/src/common/tusb_fifo.c **** 
 245:tinyusb/src/common/tusb_fifo.c ****   // current buffer of fifo
 246:tinyusb/src/common/tusb_fifo.c ****   uint8_t* ff_buf = f->buffer + (rd_ptr * f->item_size);
 247:tinyusb/src/common/tusb_fifo.c **** 
 248:tinyusb/src/common/tusb_fifo.c ****   switch (copy_mode)
 249:tinyusb/src/common/tusb_fifo.c ****   {
 250:tinyusb/src/common/tusb_fifo.c ****     case TU_FIFO_COPY_INC:
 251:tinyusb/src/common/tusb_fifo.c ****       if ( n <= lin_count )
 252:tinyusb/src/common/tusb_fifo.c ****       {
 253:tinyusb/src/common/tusb_fifo.c ****         // Linear only
 254:tinyusb/src/common/tusb_fifo.c ****         memcpy(app_buf, ff_buf, n*f->item_size);
 255:tinyusb/src/common/tusb_fifo.c ****       }
 256:tinyusb/src/common/tusb_fifo.c ****       else
 257:tinyusb/src/common/tusb_fifo.c ****       {
 258:tinyusb/src/common/tusb_fifo.c ****         // Wrap around
ARM GAS  /tmp/cc5fbsfm.s 			page 6


 259:tinyusb/src/common/tusb_fifo.c **** 
 260:tinyusb/src/common/tusb_fifo.c ****         // Read data from linear part of buffer
 261:tinyusb/src/common/tusb_fifo.c ****         memcpy(app_buf, ff_buf, lin_bytes);
 262:tinyusb/src/common/tusb_fifo.c **** 
 263:tinyusb/src/common/tusb_fifo.c ****         // Read data wrapped part
 264:tinyusb/src/common/tusb_fifo.c ****         memcpy((uint8_t*) app_buf + lin_bytes, f->buffer, wrap_bytes);
 265:tinyusb/src/common/tusb_fifo.c ****       }
 266:tinyusb/src/common/tusb_fifo.c ****     break;
 267:tinyusb/src/common/tusb_fifo.c **** 
 268:tinyusb/src/common/tusb_fifo.c ****     case TU_FIFO_COPY_CST_FULL_WORDS:
 269:tinyusb/src/common/tusb_fifo.c ****       if ( n <= lin_count )
 270:tinyusb/src/common/tusb_fifo.c ****       {
 271:tinyusb/src/common/tusb_fifo.c ****         // Linear only
 272:tinyusb/src/common/tusb_fifo.c ****         _ff_pull_const_addr(app_buf, ff_buf, n*f->item_size);
 273:tinyusb/src/common/tusb_fifo.c ****       }
 274:tinyusb/src/common/tusb_fifo.c ****       else
 275:tinyusb/src/common/tusb_fifo.c ****       {
 276:tinyusb/src/common/tusb_fifo.c ****         // Wrap around case
 277:tinyusb/src/common/tusb_fifo.c **** 
 278:tinyusb/src/common/tusb_fifo.c ****         // Read full words from linear part of buffer
 279:tinyusb/src/common/tusb_fifo.c ****         uint16_t lin_4n_bytes = lin_bytes & 0xFFFC;
 280:tinyusb/src/common/tusb_fifo.c ****         _ff_pull_const_addr(app_buf, ff_buf, lin_4n_bytes);
 281:tinyusb/src/common/tusb_fifo.c ****         ff_buf += lin_4n_bytes;
 282:tinyusb/src/common/tusb_fifo.c **** 
 283:tinyusb/src/common/tusb_fifo.c ****         // There could be odd 1-3 bytes before the wrap-around boundary
 284:tinyusb/src/common/tusb_fifo.c ****         uint8_t rem = lin_bytes & 0x03;
 285:tinyusb/src/common/tusb_fifo.c ****         if (rem > 0)
 286:tinyusb/src/common/tusb_fifo.c ****         {
 287:tinyusb/src/common/tusb_fifo.c ****           volatile uint32_t * reg_tx = (volatile uint32_t *) app_buf;
 288:tinyusb/src/common/tusb_fifo.c **** 
 289:tinyusb/src/common/tusb_fifo.c ****           uint8_t remrem = (uint8_t) tu_min16(wrap_bytes, 4-rem);
 290:tinyusb/src/common/tusb_fifo.c ****           wrap_bytes -= remrem;
 291:tinyusb/src/common/tusb_fifo.c **** 
 292:tinyusb/src/common/tusb_fifo.c ****           uint32_t tmp32=0;
 293:tinyusb/src/common/tusb_fifo.c ****           uint8_t * dst_u8 = (uint8_t *)&tmp32;
 294:tinyusb/src/common/tusb_fifo.c **** 
 295:tinyusb/src/common/tusb_fifo.c ****           // Read 1-3 bytes before wrapped boundary
 296:tinyusb/src/common/tusb_fifo.c ****           while(rem--) *dst_u8++ = *ff_buf++;
 297:tinyusb/src/common/tusb_fifo.c **** 
 298:tinyusb/src/common/tusb_fifo.c ****           // Read more bytes from beginning to complete a word
 299:tinyusb/src/common/tusb_fifo.c ****           ff_buf = f->buffer;
 300:tinyusb/src/common/tusb_fifo.c ****           while(remrem--) *dst_u8++ = *ff_buf++;
 301:tinyusb/src/common/tusb_fifo.c **** 
 302:tinyusb/src/common/tusb_fifo.c ****           *reg_tx = tmp32;
 303:tinyusb/src/common/tusb_fifo.c ****         }
 304:tinyusb/src/common/tusb_fifo.c ****         else
 305:tinyusb/src/common/tusb_fifo.c ****         {
 306:tinyusb/src/common/tusb_fifo.c ****           ff_buf = f->buffer; // wrap around to beginning
 307:tinyusb/src/common/tusb_fifo.c ****         }
 308:tinyusb/src/common/tusb_fifo.c **** 
 309:tinyusb/src/common/tusb_fifo.c ****         // Read data wrapped part
 310:tinyusb/src/common/tusb_fifo.c ****         if (wrap_bytes > 0) _ff_pull_const_addr(app_buf, ff_buf, wrap_bytes);
 311:tinyusb/src/common/tusb_fifo.c ****       }
 312:tinyusb/src/common/tusb_fifo.c ****     break;
 313:tinyusb/src/common/tusb_fifo.c **** 
 314:tinyusb/src/common/tusb_fifo.c ****     default: break;
 315:tinyusb/src/common/tusb_fifo.c ****   }
ARM GAS  /tmp/cc5fbsfm.s 			page 7


 316:tinyusb/src/common/tusb_fifo.c **** }
 317:tinyusb/src/common/tusb_fifo.c **** 
 318:tinyusb/src/common/tusb_fifo.c **** //--------------------------------------------------------------------+
 319:tinyusb/src/common/tusb_fifo.c **** // Helper
 320:tinyusb/src/common/tusb_fifo.c **** //--------------------------------------------------------------------+
 321:tinyusb/src/common/tusb_fifo.c **** 
 322:tinyusb/src/common/tusb_fifo.c **** // return only the index difference and as such can be used to determine an overflow i.e overflowab
 323:tinyusb/src/common/tusb_fifo.c **** TU_ATTR_ALWAYS_INLINE static inline
 324:tinyusb/src/common/tusb_fifo.c **** uint16_t _ff_count(uint16_t depth, uint16_t wr_idx, uint16_t rd_idx)
 325:tinyusb/src/common/tusb_fifo.c **** {
 326:tinyusb/src/common/tusb_fifo.c ****   // In case we have non-power of two depth we need a further modification
 327:tinyusb/src/common/tusb_fifo.c ****   if (wr_idx >= rd_idx)
 328:tinyusb/src/common/tusb_fifo.c ****   {
 329:tinyusb/src/common/tusb_fifo.c ****     return (uint16_t) (wr_idx - rd_idx);
 330:tinyusb/src/common/tusb_fifo.c ****   } else
 331:tinyusb/src/common/tusb_fifo.c ****   {
 332:tinyusb/src/common/tusb_fifo.c ****     return (uint16_t) (2*depth - (rd_idx - wr_idx));
 333:tinyusb/src/common/tusb_fifo.c ****   }
 334:tinyusb/src/common/tusb_fifo.c **** }
 335:tinyusb/src/common/tusb_fifo.c **** 
 336:tinyusb/src/common/tusb_fifo.c **** // return remaining slot in fifo
 337:tinyusb/src/common/tusb_fifo.c **** TU_ATTR_ALWAYS_INLINE static inline
 338:tinyusb/src/common/tusb_fifo.c **** uint16_t _ff_remaining(uint16_t depth, uint16_t wr_idx, uint16_t rd_idx)
 339:tinyusb/src/common/tusb_fifo.c **** {
 340:tinyusb/src/common/tusb_fifo.c ****   uint16_t const count = _ff_count(depth, wr_idx, rd_idx);
 341:tinyusb/src/common/tusb_fifo.c ****   return (depth > count) ? (depth - count) : 0;
 342:tinyusb/src/common/tusb_fifo.c **** }
 343:tinyusb/src/common/tusb_fifo.c **** 
 344:tinyusb/src/common/tusb_fifo.c **** //--------------------------------------------------------------------+
 345:tinyusb/src/common/tusb_fifo.c **** // Index Helper
 346:tinyusb/src/common/tusb_fifo.c **** //--------------------------------------------------------------------+
 347:tinyusb/src/common/tusb_fifo.c **** 
 348:tinyusb/src/common/tusb_fifo.c **** // Advance an absolute index
 349:tinyusb/src/common/tusb_fifo.c **** // "absolute" index is only in the range of [0..2*depth)
 350:tinyusb/src/common/tusb_fifo.c **** static uint16_t advance_index(uint16_t depth, uint16_t idx, uint16_t offset)
 351:tinyusb/src/common/tusb_fifo.c **** {
  29              		.loc 1 351 1 view -0
  30              		.cfi_startproc
  31              		@ args = 0, pretend = 0, frame = 0
  32              		@ frame_needed = 0, uses_anonymous_args = 0
  33              		@ link register save eliminated.
  34              		.loc 1 351 1 is_stmt 0 view .LVU1
  35 0000 0346     		mov	r3, r0
 352:tinyusb/src/common/tusb_fifo.c ****   // We limit the index space of p such that a correct wrap around happens
 353:tinyusb/src/common/tusb_fifo.c ****   // Check for a wrap around or if we are in unused index space - This has to be checked first!!
 354:tinyusb/src/common/tusb_fifo.c ****   // We are exploiting the wrap around to the correct index
 355:tinyusb/src/common/tusb_fifo.c ****   uint16_t new_idx = (uint16_t) (idx + offset);
  36              		.loc 1 355 3 is_stmt 1 view .LVU2
  37              		.loc 1 355 12 is_stmt 0 view .LVU3
  38 0002 0A44     		add	r2, r2, r1
  39              	.LVL1:
  40              		.loc 1 355 12 view .LVU4
  41 0004 90B2     		uxth	r0, r2
  42              	.LVL2:
 356:tinyusb/src/common/tusb_fifo.c ****   if ( (idx > new_idx) || (new_idx >= 2*depth) )
  43              		.loc 1 356 3 is_stmt 1 view .LVU5
  44              		.loc 1 356 6 is_stmt 0 view .LVU6
ARM GAS  /tmp/cc5fbsfm.s 			page 8


  45 0006 8142     		cmp	r1, r0
  46 0008 02D8     		bhi	.L2
  47              		.loc 1 356 24 discriminator 1 view .LVU7
  48 000a B0EB430F 		cmp	r0, r3, lsl #1
  49 000e 03DB     		blt	.L3
  50              	.L2:
  51              	.LBB89:
 357:tinyusb/src/common/tusb_fifo.c ****   {
 358:tinyusb/src/common/tusb_fifo.c ****     uint16_t const non_used_index_space = (uint16_t) (UINT16_MAX - (2*depth-1));
  52              		.loc 1 358 5 is_stmt 1 view .LVU8
  53              		.loc 1 358 43 is_stmt 0 view .LVU9
  54 0010 5B00     		lsls	r3, r3, #1
  55 0012 9BB2     		uxth	r3, r3
  56              	.LVL3:
 359:tinyusb/src/common/tusb_fifo.c ****     new_idx = (uint16_t) (new_idx + non_used_index_space);
  57              		.loc 1 359 5 is_stmt 1 view .LVU10
  58 0014 C01A     		subs	r0, r0, r3
  59              	.LVL4:
  60              		.loc 1 359 5 is_stmt 0 view .LVU11
  61 0016 80B2     		uxth	r0, r0
  62              	.LVL5:
  63              	.L3:
  64              		.loc 1 359 5 view .LVU12
  65              	.LBE89:
 360:tinyusb/src/common/tusb_fifo.c ****   }
 361:tinyusb/src/common/tusb_fifo.c **** 
 362:tinyusb/src/common/tusb_fifo.c ****   return new_idx;
  66              		.loc 1 362 3 is_stmt 1 view .LVU13
 363:tinyusb/src/common/tusb_fifo.c **** }
  67              		.loc 1 363 1 is_stmt 0 view .LVU14
  68 0018 7047     		bx	lr
  69              		.cfi_endproc
  70              	.LFE67:
  72              		.section	.text._tu_fifo_peek,"ax",%progbits
  73              		.align	1
  74              		.syntax unified
  75              		.thumb
  76              		.thumb_func
  77              		.fpu fpv4-sp-d16
  79              	_tu_fifo_peek:
  80              	.LVL6:
  81              	.LFB70:
 364:tinyusb/src/common/tusb_fifo.c **** 
 365:tinyusb/src/common/tusb_fifo.c **** #if 0 // not used but
 366:tinyusb/src/common/tusb_fifo.c **** // Backward an absolute index
 367:tinyusb/src/common/tusb_fifo.c **** static uint16_t backward_index(uint16_t depth, uint16_t idx, uint16_t offset)
 368:tinyusb/src/common/tusb_fifo.c **** {
 369:tinyusb/src/common/tusb_fifo.c ****   // We limit the index space of p such that a correct wrap around happens
 370:tinyusb/src/common/tusb_fifo.c ****   // Check for a wrap around or if we are in unused index space - This has to be checked first!!
 371:tinyusb/src/common/tusb_fifo.c ****   // We are exploiting the wrap around to the correct index
 372:tinyusb/src/common/tusb_fifo.c ****   uint16_t new_idx = (uint16_t) (idx - offset);
 373:tinyusb/src/common/tusb_fifo.c ****   if ( (idx < new_idx) || (new_idx >= 2*depth) )
 374:tinyusb/src/common/tusb_fifo.c ****   {
 375:tinyusb/src/common/tusb_fifo.c ****     uint16_t const non_used_index_space = (uint16_t) (UINT16_MAX - (2*depth-1));
 376:tinyusb/src/common/tusb_fifo.c ****     new_idx = (uint16_t) (new_idx - non_used_index_space);
 377:tinyusb/src/common/tusb_fifo.c ****   }
 378:tinyusb/src/common/tusb_fifo.c **** 
ARM GAS  /tmp/cc5fbsfm.s 			page 9


 379:tinyusb/src/common/tusb_fifo.c ****   return new_idx;
 380:tinyusb/src/common/tusb_fifo.c **** }
 381:tinyusb/src/common/tusb_fifo.c **** #endif
 382:tinyusb/src/common/tusb_fifo.c **** 
 383:tinyusb/src/common/tusb_fifo.c **** // index to pointer, simply an modulo with minus.
 384:tinyusb/src/common/tusb_fifo.c **** TU_ATTR_ALWAYS_INLINE static inline
 385:tinyusb/src/common/tusb_fifo.c **** uint16_t idx2ptr(uint16_t depth, uint16_t idx)
 386:tinyusb/src/common/tusb_fifo.c **** {
 387:tinyusb/src/common/tusb_fifo.c ****   // Only run at most 3 times since index is limit in the range of [0..2*depth)
 388:tinyusb/src/common/tusb_fifo.c ****   while ( idx >= depth ) idx -= depth;
 389:tinyusb/src/common/tusb_fifo.c ****   return idx;
 390:tinyusb/src/common/tusb_fifo.c **** }
 391:tinyusb/src/common/tusb_fifo.c **** 
 392:tinyusb/src/common/tusb_fifo.c **** // Works on local copies of w
 393:tinyusb/src/common/tusb_fifo.c **** // When an overwritable fifo is overflowed, rd_idx will be re-index so that it forms
 394:tinyusb/src/common/tusb_fifo.c **** // an full fifo i.e _ff_count() = depth
 395:tinyusb/src/common/tusb_fifo.c **** TU_ATTR_ALWAYS_INLINE static inline
 396:tinyusb/src/common/tusb_fifo.c **** uint16_t _ff_correct_read_index(tu_fifo_t* f, uint16_t wr_idx)
 397:tinyusb/src/common/tusb_fifo.c **** {
 398:tinyusb/src/common/tusb_fifo.c ****   uint16_t rd_idx;
 399:tinyusb/src/common/tusb_fifo.c ****   if ( wr_idx >= f->depth )
 400:tinyusb/src/common/tusb_fifo.c ****   {
 401:tinyusb/src/common/tusb_fifo.c ****     rd_idx = wr_idx - f->depth;
 402:tinyusb/src/common/tusb_fifo.c ****   }else
 403:tinyusb/src/common/tusb_fifo.c ****   {
 404:tinyusb/src/common/tusb_fifo.c ****     rd_idx = wr_idx + f->depth;
 405:tinyusb/src/common/tusb_fifo.c ****   }
 406:tinyusb/src/common/tusb_fifo.c **** 
 407:tinyusb/src/common/tusb_fifo.c ****   f->rd_idx = rd_idx;
 408:tinyusb/src/common/tusb_fifo.c **** 
 409:tinyusb/src/common/tusb_fifo.c ****   return rd_idx;
 410:tinyusb/src/common/tusb_fifo.c **** }
 411:tinyusb/src/common/tusb_fifo.c **** 
 412:tinyusb/src/common/tusb_fifo.c **** // Works on local copies of w and r
 413:tinyusb/src/common/tusb_fifo.c **** // Must be protected by mutexes since in case of an overflow read pointer gets modified
 414:tinyusb/src/common/tusb_fifo.c **** static bool _tu_fifo_peek(tu_fifo_t* f, void * p_buffer, uint16_t wr_idx, uint16_t rd_idx)
 415:tinyusb/src/common/tusb_fifo.c **** {
  82              		.loc 1 415 1 is_stmt 1 view -0
  83              		.cfi_startproc
  84              		@ args = 0, pretend = 0, frame = 0
  85              		@ frame_needed = 0, uses_anonymous_args = 0
  86              		.loc 1 415 1 is_stmt 0 view .LVU16
  87 0000 10B5     		push	{r4, lr}
  88              	.LCFI0:
  89              		.cfi_def_cfa_offset 8
  90              		.cfi_offset 4, -8
  91              		.cfi_offset 14, -4
  92 0002 8646     		mov	lr, r0
  93 0004 0846     		mov	r0, r1
  94              	.LVL7:
 416:tinyusb/src/common/tusb_fifo.c ****   uint16_t cnt = _ff_count(f->depth, wr_idx, rd_idx);
  95              		.loc 1 416 3 is_stmt 1 view .LVU17
  96              		.loc 1 416 18 is_stmt 0 view .LVU18
  97 0006 BEF804C0 		ldrh	ip, [lr, #4]
  98              	.LVL8:
  99              	.LBB90:
 100              	.LBI90:
ARM GAS  /tmp/cc5fbsfm.s 			page 10


 324:tinyusb/src/common/tusb_fifo.c **** {
 101              		.loc 1 324 10 is_stmt 1 view .LVU19
 102              	.LBB91:
 327:tinyusb/src/common/tusb_fifo.c ****   {
 103              		.loc 1 327 3 view .LVU20
 327:tinyusb/src/common/tusb_fifo.c ****   {
 104              		.loc 1 327 6 is_stmt 0 view .LVU21
 105 000a 9A42     		cmp	r2, r3
 106 000c 0CD3     		bcc	.L5
 329:tinyusb/src/common/tusb_fifo.c ****   } else
 107              		.loc 1 329 5 is_stmt 1 view .LVU22
 329:tinyusb/src/common/tusb_fifo.c ****   } else
 108              		.loc 1 329 12 is_stmt 0 view .LVU23
 109 000e D41A     		subs	r4, r2, r3
 110 0010 A4B2     		uxth	r4, r4
 111              	.LVL9:
 112              	.L6:
 329:tinyusb/src/common/tusb_fifo.c ****   } else
 113              		.loc 1 329 12 view .LVU24
 114              	.LBE91:
 115              	.LBE90:
 417:tinyusb/src/common/tusb_fifo.c **** 
 418:tinyusb/src/common/tusb_fifo.c ****   // nothing to peek
 419:tinyusb/src/common/tusb_fifo.c ****   if ( cnt == 0 ) return false;
 116              		.loc 1 419 3 is_stmt 1 view .LVU25
 117              		.loc 1 419 6 is_stmt 0 view .LVU26
 118 0012 2CB3     		cbz	r4, .L13
 420:tinyusb/src/common/tusb_fifo.c **** 
 421:tinyusb/src/common/tusb_fifo.c ****   // Check overflow and correct if required
 422:tinyusb/src/common/tusb_fifo.c ****   if ( cnt > f->depth )
 119              		.loc 1 422 3 is_stmt 1 view .LVU27
 120              		.loc 1 422 6 is_stmt 0 view .LVU28
 121 0014 A445     		cmp	ip, r4
 122 0016 15D2     		bcs	.L11
 423:tinyusb/src/common/tusb_fifo.c ****   {
 424:tinyusb/src/common/tusb_fifo.c ****     rd_idx = _ff_correct_read_index(f, wr_idx);
 123              		.loc 1 424 5 is_stmt 1 view .LVU29
 124              	.LVL10:
 125              	.LBB93:
 126              	.LBI93:
 396:tinyusb/src/common/tusb_fifo.c **** {
 127              		.loc 1 396 10 view .LVU30
 128              	.LBB94:
 398:tinyusb/src/common/tusb_fifo.c ****   if ( wr_idx >= f->depth )
 129              		.loc 1 398 3 view .LVU31
 399:tinyusb/src/common/tusb_fifo.c ****   {
 130              		.loc 1 399 3 view .LVU32
 399:tinyusb/src/common/tusb_fifo.c ****   {
 131              		.loc 1 399 6 is_stmt 0 view .LVU33
 132 0018 9445     		cmp	ip, r2
 133 001a 0CD8     		bhi	.L9
 401:tinyusb/src/common/tusb_fifo.c ****   }else
 134              		.loc 1 401 5 is_stmt 1 view .LVU34
 401:tinyusb/src/common/tusb_fifo.c ****   }else
 135              		.loc 1 401 12 is_stmt 0 view .LVU35
 136 001c A2EB0C03 		sub	r3, r2, ip
 137              	.LVL11:
ARM GAS  /tmp/cc5fbsfm.s 			page 11


 401:tinyusb/src/common/tusb_fifo.c ****   }else
 138              		.loc 1 401 12 view .LVU36
 139 0020 9BB2     		uxth	r3, r3
 140              	.LVL12:
 141              	.L10:
 407:tinyusb/src/common/tusb_fifo.c **** 
 142              		.loc 1 407 3 is_stmt 1 view .LVU37
 407:tinyusb/src/common/tusb_fifo.c **** 
 143              		.loc 1 407 13 is_stmt 0 view .LVU38
 144 0022 AEF80A30 		strh	r3, [lr, #10]	@ movhi
 409:tinyusb/src/common/tusb_fifo.c **** }
 145              		.loc 1 409 3 is_stmt 1 view .LVU39
 146              	.LVL13:
 409:tinyusb/src/common/tusb_fifo.c **** }
 147              		.loc 1 409 3 is_stmt 0 view .LVU40
 148              	.LBE94:
 149              	.LBE93:
 425:tinyusb/src/common/tusb_fifo.c ****     cnt = f->depth;
 150              		.loc 1 425 5 is_stmt 1 view .LVU41
 426:tinyusb/src/common/tusb_fifo.c ****   }
 427:tinyusb/src/common/tusb_fifo.c **** 
 428:tinyusb/src/common/tusb_fifo.c ****   uint16_t rd_ptr = idx2ptr(f->depth, rd_idx);
 151              		.loc 1 428 3 view .LVU42
 152              	.LBB96:
 153              	.LBI96:
 385:tinyusb/src/common/tusb_fifo.c **** {
 154              		.loc 1 385 10 view .LVU43
 155              	.LBB97:
 388:tinyusb/src/common/tusb_fifo.c ****   return idx;
 156              		.loc 1 388 3 view .LVU44
 388:tinyusb/src/common/tusb_fifo.c ****   return idx;
 157              		.loc 1 388 9 is_stmt 0 view .LVU45
 158 0026 0DE0     		b	.L11
 159              	.LVL14:
 160              	.L5:
 388:tinyusb/src/common/tusb_fifo.c ****   return idx;
 161              		.loc 1 388 9 view .LVU46
 162              	.LBE97:
 163              	.LBE96:
 164              	.LBB99:
 165              	.LBB92:
 332:tinyusb/src/common/tusb_fifo.c ****   }
 166              		.loc 1 332 5 is_stmt 1 view .LVU47
 332:tinyusb/src/common/tusb_fifo.c ****   }
 167              		.loc 1 332 32 is_stmt 0 view .LVU48
 168 0028 D41A     		subs	r4, r2, r3
 332:tinyusb/src/common/tusb_fifo.c ****   }
 169              		.loc 1 332 12 view .LVU49
 170 002a 4FEA4C01 		lsl	r1, ip, #1
 171 002e 11FA84F4 		uxtah	r4, r1, r4
 172 0032 A4B2     		uxth	r4, r4
 173 0034 EDE7     		b	.L6
 174              	.LVL15:
 175              	.L9:
 332:tinyusb/src/common/tusb_fifo.c ****   }
 176              		.loc 1 332 12 view .LVU50
 177              	.LBE92:
ARM GAS  /tmp/cc5fbsfm.s 			page 12


 178              	.LBE99:
 179              	.LBB100:
 180              	.LBB95:
 404:tinyusb/src/common/tusb_fifo.c ****   }
 181              		.loc 1 404 5 is_stmt 1 view .LVU51
 404:tinyusb/src/common/tusb_fifo.c ****   }
 182              		.loc 1 404 12 is_stmt 0 view .LVU52
 183 0036 0CEB0203 		add	r3, ip, r2
 184              	.LVL16:
 404:tinyusb/src/common/tusb_fifo.c ****   }
 185              		.loc 1 404 12 view .LVU53
 186 003a 9BB2     		uxth	r3, r3
 187              	.LVL17:
 404:tinyusb/src/common/tusb_fifo.c ****   }
 188              		.loc 1 404 12 view .LVU54
 189 003c F1E7     		b	.L10
 190              	.LVL18:
 191              	.L12:
 404:tinyusb/src/common/tusb_fifo.c ****   }
 192              		.loc 1 404 12 view .LVU55
 193              	.LBE95:
 194              	.LBE100:
 195              	.LBB101:
 196              	.LBB98:
 388:tinyusb/src/common/tusb_fifo.c ****   return idx;
 197              		.loc 1 388 26 is_stmt 1 view .LVU56
 388:tinyusb/src/common/tusb_fifo.c ****   return idx;
 198              		.loc 1 388 30 is_stmt 0 view .LVU57
 199 003e A3EB0C03 		sub	r3, r3, ip
 200              	.LVL19:
 388:tinyusb/src/common/tusb_fifo.c ****   return idx;
 201              		.loc 1 388 30 view .LVU58
 202 0042 9BB2     		uxth	r3, r3
 203              	.LVL20:
 204              	.L11:
 388:tinyusb/src/common/tusb_fifo.c ****   return idx;
 205              		.loc 1 388 9 is_stmt 1 view .LVU59
 206 0044 9C45     		cmp	ip, r3
 207 0046 FAD9     		bls	.L12
 389:tinyusb/src/common/tusb_fifo.c **** }
 208              		.loc 1 389 3 view .LVU60
 209              	.LVL21:
 389:tinyusb/src/common/tusb_fifo.c **** }
 210              		.loc 1 389 3 is_stmt 0 view .LVU61
 211              	.LBE98:
 212              	.LBE101:
 429:tinyusb/src/common/tusb_fifo.c **** 
 430:tinyusb/src/common/tusb_fifo.c ****   // Peek data
 431:tinyusb/src/common/tusb_fifo.c ****   _ff_pull(f, p_buffer, rd_ptr);
 213              		.loc 1 431 3 is_stmt 1 view .LVU62
 214              	.LBB102:
 215              	.LBI102:
 231:tinyusb/src/common/tusb_fifo.c **** {
 216              		.loc 1 231 20 view .LVU63
 217              	.LBB103:
 233:tinyusb/src/common/tusb_fifo.c **** }
 218              		.loc 1 233 3 view .LVU64
ARM GAS  /tmp/cc5fbsfm.s 			page 13


 233:tinyusb/src/common/tusb_fifo.c **** }
 219              		.loc 1 233 20 is_stmt 0 view .LVU65
 220 0048 DEF80010 		ldr	r1, [lr]
 233:tinyusb/src/common/tusb_fifo.c **** }
 221              		.loc 1 233 39 view .LVU66
 222 004c BEF80620 		ldrh	r2, [lr, #6]
 223              	.LVL22:
 233:tinyusb/src/common/tusb_fifo.c **** }
 224              		.loc 1 233 39 view .LVU67
 225 0050 C2F30E02 		ubfx	r2, r2, #0, #15
 233:tinyusb/src/common/tusb_fifo.c **** }
 226              		.loc 1 233 3 view .LVU68
 227 0054 02FB0311 		mla	r1, r2, r3, r1
 228 0058 FFF7FEFF 		bl	memcpy
 229              	.LVL23:
 233:tinyusb/src/common/tusb_fifo.c **** }
 230              		.loc 1 233 3 view .LVU69
 231              	.LBE103:
 232              	.LBE102:
 432:tinyusb/src/common/tusb_fifo.c **** 
 433:tinyusb/src/common/tusb_fifo.c ****   return true;
 233              		.loc 1 433 3 is_stmt 1 view .LVU70
 234              		.loc 1 433 10 is_stmt 0 view .LVU71
 235 005c 0120     		movs	r0, #1
 236              	.L7:
 434:tinyusb/src/common/tusb_fifo.c **** }
 237              		.loc 1 434 1 view .LVU72
 238 005e 10BD     		pop	{r4, pc}
 239              	.LVL24:
 240              	.L13:
 419:tinyusb/src/common/tusb_fifo.c **** 
 241              		.loc 1 419 26 view .LVU73
 242 0060 0020     		movs	r0, #0
 243              	.LVL25:
 419:tinyusb/src/common/tusb_fifo.c **** 
 244              		.loc 1 419 26 view .LVU74
 245 0062 FCE7     		b	.L7
 246              		.cfi_endproc
 247              	.LFE70:
 249              		.section	.text._ff_pull_const_addr,"ax",%progbits
 250              		.align	1
 251              		.syntax unified
 252              		.thumb
 253              		.thumb_func
 254              		.fpu fpv4-sp-d16
 256              	_ff_pull_const_addr:
 257              	.LVL26:
 258              	.LFB60:
 122:tinyusb/src/common/tusb_fifo.c ****   volatile uint32_t * reg_tx = (volatile uint32_t *) app_buf;
 259              		.loc 1 122 1 is_stmt 1 view -0
 260              		.cfi_startproc
 261              		@ args = 0, pretend = 0, frame = 8
 262              		@ frame_needed = 0, uses_anonymous_args = 0
 122:tinyusb/src/common/tusb_fifo.c ****   volatile uint32_t * reg_tx = (volatile uint32_t *) app_buf;
 263              		.loc 1 122 1 is_stmt 0 view .LVU76
 264 0000 30B5     		push	{r4, r5, lr}
 265              	.LCFI1:
ARM GAS  /tmp/cc5fbsfm.s 			page 14


 266              		.cfi_def_cfa_offset 12
 267              		.cfi_offset 4, -12
 268              		.cfi_offset 5, -8
 269              		.cfi_offset 14, -4
 270 0002 83B0     		sub	sp, sp, #12
 271              	.LCFI2:
 272              		.cfi_def_cfa_offset 24
 273 0004 0546     		mov	r5, r0
 123:tinyusb/src/common/tusb_fifo.c **** 
 274              		.loc 1 123 3 is_stmt 1 view .LVU77
 275              	.LVL27:
 126:tinyusb/src/common/tusb_fifo.c ****   while(full_words--)
 276              		.loc 1 126 3 view .LVU78
 126:tinyusb/src/common/tusb_fifo.c ****   while(full_words--)
 277              		.loc 1 126 12 is_stmt 0 view .LVU79
 278 0006 9408     		lsrs	r4, r2, #2
 279              	.LVL28:
 127:tinyusb/src/common/tusb_fifo.c ****   {
 280              		.loc 1 127 3 is_stmt 1 view .LVU80
 127:tinyusb/src/common/tusb_fifo.c ****   {
 281              		.loc 1 127 8 is_stmt 0 view .LVU81
 282 0008 03E0     		b	.L16
 283              	.LVL29:
 284              	.L17:
 129:tinyusb/src/common/tusb_fifo.c ****     ff_buf += 4;
 285              		.loc 1 129 5 is_stmt 1 view .LVU82
 286              	.LBB104:
 287              	.LBI104:
 288              		.file 2 "tinyusb/src/common/tusb_common.h"
   1:tinyusb/src/common/tusb_common.h **** /*
   2:tinyusb/src/common/tusb_common.h ****  * The MIT License (MIT)
   3:tinyusb/src/common/tusb_common.h ****  *
   4:tinyusb/src/common/tusb_common.h ****  * Copyright (c) 2019 Ha Thach (tinyusb.org)
   5:tinyusb/src/common/tusb_common.h ****  *
   6:tinyusb/src/common/tusb_common.h ****  * Permission is hereby granted, free of charge, to any person obtaining a copy
   7:tinyusb/src/common/tusb_common.h ****  * of this software and associated documentation files (the "Software"), to deal
   8:tinyusb/src/common/tusb_common.h ****  * in the Software without restriction, including without limitation the rights
   9:tinyusb/src/common/tusb_common.h ****  * to use, copy, modify, merge, publish, distribute, sublicense, and/or sell
  10:tinyusb/src/common/tusb_common.h ****  * copies of the Software, and to permit persons to whom the Software is
  11:tinyusb/src/common/tusb_common.h ****  * furnished to do so, subject to the following conditions:
  12:tinyusb/src/common/tusb_common.h ****  *
  13:tinyusb/src/common/tusb_common.h ****  * The above copyright notice and this permission notice shall be included in
  14:tinyusb/src/common/tusb_common.h ****  * all copies or substantial portions of the Software.
  15:tinyusb/src/common/tusb_common.h ****  *
  16:tinyusb/src/common/tusb_common.h ****  * THE SOFTWARE IS PROVIDED "AS IS", WITHOUT WARRANTY OF ANY KIND, EXPRESS OR
  17:tinyusb/src/common/tusb_common.h ****  * IMPLIED, INCLUDING BUT NOT LIMITED TO THE WARRANTIES OF MERCHANTABILITY,
  18:tinyusb/src/common/tusb_common.h ****  * FITNESS FOR A PARTICULAR PURPOSE AND NONINFRINGEMENT. IN NO EVENT SHALL THE
  19:tinyusb/src/common/tusb_common.h ****  * AUTHORS OR COPYRIGHT HOLDERS BE LIABLE FOR ANY CLAIM, DAMAGES OR OTHER
  20:tinyusb/src/common/tusb_common.h ****  * LIABILITY, WHETHER IN AN ACTION OF CONTRACT, TORT OR OTHERWISE, ARISING FROM,
  21:tinyusb/src/common/tusb_common.h ****  * OUT OF OR IN CONNECTION WITH THE SOFTWARE OR THE USE OR OTHER DEALINGS IN
  22:tinyusb/src/common/tusb_common.h ****  * THE SOFTWARE.
  23:tinyusb/src/common/tusb_common.h ****  *
  24:tinyusb/src/common/tusb_common.h ****  * This file is part of the TinyUSB stack.
  25:tinyusb/src/common/tusb_common.h ****  */
  26:tinyusb/src/common/tusb_common.h **** 
  27:tinyusb/src/common/tusb_common.h **** #ifndef _TUSB_COMMON_H_
  28:tinyusb/src/common/tusb_common.h **** #define _TUSB_COMMON_H_
ARM GAS  /tmp/cc5fbsfm.s 			page 15


  29:tinyusb/src/common/tusb_common.h **** 
  30:tinyusb/src/common/tusb_common.h **** #ifdef __cplusplus
  31:tinyusb/src/common/tusb_common.h ****  extern "C" {
  32:tinyusb/src/common/tusb_common.h **** #endif
  33:tinyusb/src/common/tusb_common.h **** 
  34:tinyusb/src/common/tusb_common.h **** //--------------------------------------------------------------------+
  35:tinyusb/src/common/tusb_common.h **** // Macros Helper
  36:tinyusb/src/common/tusb_common.h **** //--------------------------------------------------------------------+
  37:tinyusb/src/common/tusb_common.h **** #define TU_ARRAY_SIZE(_arr)   ( sizeof(_arr) / sizeof(_arr[0]) )
  38:tinyusb/src/common/tusb_common.h **** #define TU_MIN(_x, _y)        ( ( (_x) < (_y) ) ? (_x) : (_y) )
  39:tinyusb/src/common/tusb_common.h **** #define TU_MAX(_x, _y)        ( ( (_x) > (_y) ) ? (_x) : (_y) )
  40:tinyusb/src/common/tusb_common.h **** 
  41:tinyusb/src/common/tusb_common.h **** #define TU_U16(_high, _low)   ((uint16_t) (((_high) << 8) | (_low)))
  42:tinyusb/src/common/tusb_common.h **** #define TU_U16_HIGH(_u16)     ((uint8_t) (((_u16) >> 8) & 0x00ff))
  43:tinyusb/src/common/tusb_common.h **** #define TU_U16_LOW(_u16)      ((uint8_t) ((_u16)       & 0x00ff))
  44:tinyusb/src/common/tusb_common.h **** #define U16_TO_U8S_BE(_u16)   TU_U16_HIGH(_u16), TU_U16_LOW(_u16)
  45:tinyusb/src/common/tusb_common.h **** #define U16_TO_U8S_LE(_u16)   TU_U16_LOW(_u16), TU_U16_HIGH(_u16)
  46:tinyusb/src/common/tusb_common.h **** 
  47:tinyusb/src/common/tusb_common.h **** #define TU_U32_BYTE3(_u32)    ((uint8_t) ((((uint32_t) _u32) >> 24) & 0x000000ff)) // MSB
  48:tinyusb/src/common/tusb_common.h **** #define TU_U32_BYTE2(_u32)    ((uint8_t) ((((uint32_t) _u32) >> 16) & 0x000000ff))
  49:tinyusb/src/common/tusb_common.h **** #define TU_U32_BYTE1(_u32)    ((uint8_t) ((((uint32_t) _u32) >>  8) & 0x000000ff))
  50:tinyusb/src/common/tusb_common.h **** #define TU_U32_BYTE0(_u32)    ((uint8_t) (((uint32_t)  _u32)        & 0x000000ff)) // LSB
  51:tinyusb/src/common/tusb_common.h **** 
  52:tinyusb/src/common/tusb_common.h **** #define U32_TO_U8S_BE(_u32)   TU_U32_BYTE3(_u32), TU_U32_BYTE2(_u32), TU_U32_BYTE1(_u32), TU_U32_BY
  53:tinyusb/src/common/tusb_common.h **** #define U32_TO_U8S_LE(_u32)   TU_U32_BYTE0(_u32), TU_U32_BYTE1(_u32), TU_U32_BYTE2(_u32), TU_U32_BY
  54:tinyusb/src/common/tusb_common.h **** 
  55:tinyusb/src/common/tusb_common.h **** #define TU_BIT(n)             (1UL << (n))
  56:tinyusb/src/common/tusb_common.h **** 
  57:tinyusb/src/common/tusb_common.h **** // Generate a mask with bit from high (31) to low (0) set, e.g TU_GENMASK(3, 0) = 0b1111
  58:tinyusb/src/common/tusb_common.h **** #define TU_GENMASK(h, l)      ( (UINT32_MAX << (l)) & (UINT32_MAX >> (31 - (h))) )
  59:tinyusb/src/common/tusb_common.h **** 
  60:tinyusb/src/common/tusb_common.h **** //--------------------------------------------------------------------+
  61:tinyusb/src/common/tusb_common.h **** // Includes
  62:tinyusb/src/common/tusb_common.h **** //--------------------------------------------------------------------+
  63:tinyusb/src/common/tusb_common.h **** 
  64:tinyusb/src/common/tusb_common.h **** // Standard Headers
  65:tinyusb/src/common/tusb_common.h **** #include <stdbool.h>
  66:tinyusb/src/common/tusb_common.h **** #include <stdint.h>
  67:tinyusb/src/common/tusb_common.h **** #include <stddef.h>
  68:tinyusb/src/common/tusb_common.h **** #include <string.h>
  69:tinyusb/src/common/tusb_common.h **** #include <stdio.h>
  70:tinyusb/src/common/tusb_common.h **** 
  71:tinyusb/src/common/tusb_common.h **** // Tinyusb Common Headers
  72:tinyusb/src/common/tusb_common.h **** #include "tusb_option.h"
  73:tinyusb/src/common/tusb_common.h **** #include "tusb_compiler.h"
  74:tinyusb/src/common/tusb_common.h **** #include "tusb_verify.h"
  75:tinyusb/src/common/tusb_common.h **** #include "tusb_types.h"
  76:tinyusb/src/common/tusb_common.h **** #include "tusb_debug.h"
  77:tinyusb/src/common/tusb_common.h **** 
  78:tinyusb/src/common/tusb_common.h **** //--------------------------------------------------------------------+
  79:tinyusb/src/common/tusb_common.h **** // Optional API implemented by application if needed
  80:tinyusb/src/common/tusb_common.h **** // TODO move to a more ovious place/file
  81:tinyusb/src/common/tusb_common.h **** //--------------------------------------------------------------------+
  82:tinyusb/src/common/tusb_common.h **** 
  83:tinyusb/src/common/tusb_common.h **** // flush data cache
  84:tinyusb/src/common/tusb_common.h **** TU_ATTR_WEAK extern void tusb_app_dcache_flush(uintptr_t addr, uint32_t data_size);
  85:tinyusb/src/common/tusb_common.h **** 
ARM GAS  /tmp/cc5fbsfm.s 			page 16


  86:tinyusb/src/common/tusb_common.h **** // invalidate data cache
  87:tinyusb/src/common/tusb_common.h **** TU_ATTR_WEAK extern void tusb_app_dcache_invalidate(uintptr_t addr, uint32_t data_size);
  88:tinyusb/src/common/tusb_common.h **** 
  89:tinyusb/src/common/tusb_common.h **** // Optional physical <-> virtual address translation
  90:tinyusb/src/common/tusb_common.h **** TU_ATTR_WEAK extern void* tusb_app_virt_to_phys(void *virt_addr);
  91:tinyusb/src/common/tusb_common.h **** TU_ATTR_WEAK extern void* tusb_app_phys_to_virt(void *phys_addr);
  92:tinyusb/src/common/tusb_common.h **** 
  93:tinyusb/src/common/tusb_common.h **** //--------------------------------------------------------------------+
  94:tinyusb/src/common/tusb_common.h **** // Internal Inline Functions
  95:tinyusb/src/common/tusb_common.h **** //--------------------------------------------------------------------+
  96:tinyusb/src/common/tusb_common.h **** 
  97:tinyusb/src/common/tusb_common.h **** //------------- Mem -------------//
  98:tinyusb/src/common/tusb_common.h **** #define tu_memclr(buffer, size)  memset((buffer), 0, (size))
  99:tinyusb/src/common/tusb_common.h **** #define tu_varclr(_var)          tu_memclr(_var, sizeof(*(_var)))
 100:tinyusb/src/common/tusb_common.h **** 
 101:tinyusb/src/common/tusb_common.h **** // This is a backport of memset_s from c11
 102:tinyusb/src/common/tusb_common.h **** TU_ATTR_ALWAYS_INLINE static inline int tu_memset_s(void *dest, size_t destsz, int ch, size_t count
 103:tinyusb/src/common/tusb_common.h ****   // TODO may check if desst and src is not NULL
 104:tinyusb/src/common/tusb_common.h ****   if ( count > destsz ) {
 105:tinyusb/src/common/tusb_common.h ****     return -1;
 106:tinyusb/src/common/tusb_common.h ****   }
 107:tinyusb/src/common/tusb_common.h ****   memset(dest, ch, count);
 108:tinyusb/src/common/tusb_common.h ****   return 0;
 109:tinyusb/src/common/tusb_common.h **** }
 110:tinyusb/src/common/tusb_common.h **** 
 111:tinyusb/src/common/tusb_common.h **** // This is a backport of memcpy_s from c11
 112:tinyusb/src/common/tusb_common.h **** TU_ATTR_ALWAYS_INLINE static inline int tu_memcpy_s(void *dest, size_t destsz, const void *src, siz
 113:tinyusb/src/common/tusb_common.h ****   // TODO may check if desst and src is not NULL
 114:tinyusb/src/common/tusb_common.h ****   if ( count > destsz ) {
 115:tinyusb/src/common/tusb_common.h ****     return -1;
 116:tinyusb/src/common/tusb_common.h ****   }
 117:tinyusb/src/common/tusb_common.h ****   memcpy(dest, src, count);
 118:tinyusb/src/common/tusb_common.h ****   return 0;
 119:tinyusb/src/common/tusb_common.h **** }
 120:tinyusb/src/common/tusb_common.h **** 
 121:tinyusb/src/common/tusb_common.h **** 
 122:tinyusb/src/common/tusb_common.h **** //------------- Bytes -------------//
 123:tinyusb/src/common/tusb_common.h **** TU_ATTR_ALWAYS_INLINE static inline uint32_t tu_u32(uint8_t b3, uint8_t b2, uint8_t b1, uint8_t b0)
 124:tinyusb/src/common/tusb_common.h ****   return ( ((uint32_t) b3) << 24) | ( ((uint32_t) b2) << 16) | ( ((uint32_t) b1) << 8) | b0;
 125:tinyusb/src/common/tusb_common.h **** }
 126:tinyusb/src/common/tusb_common.h **** 
 127:tinyusb/src/common/tusb_common.h **** TU_ATTR_ALWAYS_INLINE static inline uint16_t tu_u16(uint8_t high, uint8_t low) {
 128:tinyusb/src/common/tusb_common.h ****   return (uint16_t) ((((uint16_t) high) << 8) | low);
 129:tinyusb/src/common/tusb_common.h **** }
 130:tinyusb/src/common/tusb_common.h **** 
 131:tinyusb/src/common/tusb_common.h **** TU_ATTR_ALWAYS_INLINE static inline uint8_t tu_u32_byte3(uint32_t ui32) { return TU_U32_BYTE3(ui32)
 132:tinyusb/src/common/tusb_common.h **** TU_ATTR_ALWAYS_INLINE static inline uint8_t tu_u32_byte2(uint32_t ui32) { return TU_U32_BYTE2(ui32)
 133:tinyusb/src/common/tusb_common.h **** TU_ATTR_ALWAYS_INLINE static inline uint8_t tu_u32_byte1(uint32_t ui32) { return TU_U32_BYTE1(ui32)
 134:tinyusb/src/common/tusb_common.h **** TU_ATTR_ALWAYS_INLINE static inline uint8_t tu_u32_byte0(uint32_t ui32) { return TU_U32_BYTE0(ui32)
 135:tinyusb/src/common/tusb_common.h **** 
 136:tinyusb/src/common/tusb_common.h **** TU_ATTR_ALWAYS_INLINE static inline uint16_t tu_u32_high16(uint32_t ui32) { return (uint16_t) (ui32
 137:tinyusb/src/common/tusb_common.h **** TU_ATTR_ALWAYS_INLINE static inline uint16_t tu_u32_low16 (uint32_t ui32) { return (uint16_t) (ui32
 138:tinyusb/src/common/tusb_common.h **** 
 139:tinyusb/src/common/tusb_common.h **** TU_ATTR_ALWAYS_INLINE static inline uint8_t tu_u16_high(uint16_t ui16) { return TU_U16_HIGH(ui16); 
 140:tinyusb/src/common/tusb_common.h **** TU_ATTR_ALWAYS_INLINE static inline uint8_t tu_u16_low (uint16_t ui16) { return TU_U16_LOW(ui16); }
 141:tinyusb/src/common/tusb_common.h **** 
 142:tinyusb/src/common/tusb_common.h **** //------------- Bits -------------//
ARM GAS  /tmp/cc5fbsfm.s 			page 17


 143:tinyusb/src/common/tusb_common.h **** TU_ATTR_ALWAYS_INLINE static inline uint32_t tu_bit_set  (uint32_t value, uint8_t pos) { return val
 144:tinyusb/src/common/tusb_common.h **** TU_ATTR_ALWAYS_INLINE static inline uint32_t tu_bit_clear(uint32_t value, uint8_t pos) { return val
 145:tinyusb/src/common/tusb_common.h **** TU_ATTR_ALWAYS_INLINE static inline bool     tu_bit_test (uint32_t value, uint8_t pos) { return (va
 146:tinyusb/src/common/tusb_common.h **** 
 147:tinyusb/src/common/tusb_common.h **** //------------- Min -------------//
 148:tinyusb/src/common/tusb_common.h **** TU_ATTR_ALWAYS_INLINE static inline uint8_t  tu_min8  (uint8_t  x, uint8_t y ) { return (x < y) ? x
 149:tinyusb/src/common/tusb_common.h **** TU_ATTR_ALWAYS_INLINE static inline uint16_t tu_min16 (uint16_t x, uint16_t y) { return (x < y) ? x
 150:tinyusb/src/common/tusb_common.h **** TU_ATTR_ALWAYS_INLINE static inline uint32_t tu_min32 (uint32_t x, uint32_t y) { return (x < y) ? x
 151:tinyusb/src/common/tusb_common.h **** 
 152:tinyusb/src/common/tusb_common.h **** //------------- Max -------------//
 153:tinyusb/src/common/tusb_common.h **** TU_ATTR_ALWAYS_INLINE static inline uint8_t  tu_max8  (uint8_t  x, uint8_t y ) { return (x > y) ? x
 154:tinyusb/src/common/tusb_common.h **** TU_ATTR_ALWAYS_INLINE static inline uint16_t tu_max16 (uint16_t x, uint16_t y) { return (x > y) ? x
 155:tinyusb/src/common/tusb_common.h **** TU_ATTR_ALWAYS_INLINE static inline uint32_t tu_max32 (uint32_t x, uint32_t y) { return (x > y) ? x
 156:tinyusb/src/common/tusb_common.h **** 
 157:tinyusb/src/common/tusb_common.h **** //------------- Align -------------//
 158:tinyusb/src/common/tusb_common.h **** TU_ATTR_ALWAYS_INLINE static inline uint32_t tu_align(uint32_t value, uint32_t alignment) {
 159:tinyusb/src/common/tusb_common.h ****   return value & ((uint32_t) ~(alignment-1));
 160:tinyusb/src/common/tusb_common.h **** }
 161:tinyusb/src/common/tusb_common.h **** 
 162:tinyusb/src/common/tusb_common.h **** TU_ATTR_ALWAYS_INLINE static inline uint32_t tu_align4  (uint32_t value) { return (value & 0xFFFFFF
 163:tinyusb/src/common/tusb_common.h **** TU_ATTR_ALWAYS_INLINE static inline uint32_t tu_align8  (uint32_t value) { return (value & 0xFFFFFF
 164:tinyusb/src/common/tusb_common.h **** TU_ATTR_ALWAYS_INLINE static inline uint32_t tu_align16 (uint32_t value) { return (value & 0xFFFFFF
 165:tinyusb/src/common/tusb_common.h **** TU_ATTR_ALWAYS_INLINE static inline uint32_t tu_align32 (uint32_t value) { return (value & 0xFFFFFF
 166:tinyusb/src/common/tusb_common.h **** TU_ATTR_ALWAYS_INLINE static inline uint32_t tu_align4k (uint32_t value) { return (value & 0xFFFFF0
 167:tinyusb/src/common/tusb_common.h **** TU_ATTR_ALWAYS_INLINE static inline uint32_t tu_offset4k(uint32_t value) { return (value & 0xFFFUL)
 168:tinyusb/src/common/tusb_common.h **** 
 169:tinyusb/src/common/tusb_common.h **** TU_ATTR_ALWAYS_INLINE static inline bool tu_is_aligned32(uint32_t value) { return (value & 0x1FUL) 
 170:tinyusb/src/common/tusb_common.h **** TU_ATTR_ALWAYS_INLINE static inline bool tu_is_aligned64(uint64_t value) { return (value & 0x3FUL) 
 171:tinyusb/src/common/tusb_common.h **** 
 172:tinyusb/src/common/tusb_common.h **** //------------- Mathematics -------------//
 173:tinyusb/src/common/tusb_common.h **** TU_ATTR_ALWAYS_INLINE static inline uint32_t tu_div_ceil(uint32_t v, uint32_t d) { return (v + d -1
 174:tinyusb/src/common/tusb_common.h **** 
 175:tinyusb/src/common/tusb_common.h **** // log2 of a value is its MSB's position
 176:tinyusb/src/common/tusb_common.h **** // TODO use clz TODO remove
 177:tinyusb/src/common/tusb_common.h **** static inline uint8_t tu_log2(uint32_t value)
 178:tinyusb/src/common/tusb_common.h **** {
 179:tinyusb/src/common/tusb_common.h ****   uint8_t result = 0;
 180:tinyusb/src/common/tusb_common.h ****   while (value >>= 1) { result++; }
 181:tinyusb/src/common/tusb_common.h ****   return result;
 182:tinyusb/src/common/tusb_common.h **** }
 183:tinyusb/src/common/tusb_common.h **** 
 184:tinyusb/src/common/tusb_common.h **** //static inline uint8_t tu_log2(uint32_t value)
 185:tinyusb/src/common/tusb_common.h **** //{
 186:tinyusb/src/common/tusb_common.h **** //   return sizeof(uint32_t) * CHAR_BIT - __builtin_clz(x) - 1;
 187:tinyusb/src/common/tusb_common.h **** //}
 188:tinyusb/src/common/tusb_common.h **** 
 189:tinyusb/src/common/tusb_common.h **** static inline bool tu_is_power_of_two(uint32_t value)
 190:tinyusb/src/common/tusb_common.h **** {
 191:tinyusb/src/common/tusb_common.h ****    return (value != 0) && ((value & (value - 1)) == 0);
 192:tinyusb/src/common/tusb_common.h **** }
 193:tinyusb/src/common/tusb_common.h **** 
 194:tinyusb/src/common/tusb_common.h **** //------------- Unaligned Access -------------//
 195:tinyusb/src/common/tusb_common.h **** #if TUP_ARCH_STRICT_ALIGN
 196:tinyusb/src/common/tusb_common.h **** 
 197:tinyusb/src/common/tusb_common.h **** // Rely on compiler to generate correct code for unaligned access
 198:tinyusb/src/common/tusb_common.h **** typedef struct { uint16_t val; } TU_ATTR_PACKED tu_unaligned_uint16_t;
 199:tinyusb/src/common/tusb_common.h **** typedef struct { uint32_t val; } TU_ATTR_PACKED tu_unaligned_uint32_t;
ARM GAS  /tmp/cc5fbsfm.s 			page 18


 200:tinyusb/src/common/tusb_common.h **** 
 201:tinyusb/src/common/tusb_common.h **** TU_ATTR_ALWAYS_INLINE static inline uint32_t tu_unaligned_read32(const void* mem)
 202:tinyusb/src/common/tusb_common.h **** {
 203:tinyusb/src/common/tusb_common.h ****   tu_unaligned_uint32_t const* ua32 = (tu_unaligned_uint32_t const*) mem;
 204:tinyusb/src/common/tusb_common.h ****   return ua32->val;
 205:tinyusb/src/common/tusb_common.h **** }
 206:tinyusb/src/common/tusb_common.h **** 
 207:tinyusb/src/common/tusb_common.h **** TU_ATTR_ALWAYS_INLINE static inline void tu_unaligned_write32(void* mem, uint32_t value)
 208:tinyusb/src/common/tusb_common.h **** {
 209:tinyusb/src/common/tusb_common.h ****   tu_unaligned_uint32_t* ua32 = (tu_unaligned_uint32_t*) mem;
 210:tinyusb/src/common/tusb_common.h ****   ua32->val = value;
 211:tinyusb/src/common/tusb_common.h **** }
 212:tinyusb/src/common/tusb_common.h **** 
 213:tinyusb/src/common/tusb_common.h **** TU_ATTR_ALWAYS_INLINE static inline uint16_t tu_unaligned_read16(const void* mem)
 214:tinyusb/src/common/tusb_common.h **** {
 215:tinyusb/src/common/tusb_common.h ****   tu_unaligned_uint16_t const* ua16 = (tu_unaligned_uint16_t const*) mem;
 216:tinyusb/src/common/tusb_common.h ****   return ua16->val;
 217:tinyusb/src/common/tusb_common.h **** }
 218:tinyusb/src/common/tusb_common.h **** 
 219:tinyusb/src/common/tusb_common.h **** TU_ATTR_ALWAYS_INLINE static inline void tu_unaligned_write16(void* mem, uint16_t value)
 220:tinyusb/src/common/tusb_common.h **** {
 221:tinyusb/src/common/tusb_common.h ****   tu_unaligned_uint16_t* ua16 = (tu_unaligned_uint16_t*) mem;
 222:tinyusb/src/common/tusb_common.h ****   ua16->val = value;
 223:tinyusb/src/common/tusb_common.h **** }
 224:tinyusb/src/common/tusb_common.h **** 
 225:tinyusb/src/common/tusb_common.h **** #elif TUP_MCU_STRICT_ALIGN
 226:tinyusb/src/common/tusb_common.h **** 
 227:tinyusb/src/common/tusb_common.h **** // MCU such as LPC_IP3511 Highspeed cannot access unaligned memory on USB_RAM although it is ARM M4
 228:tinyusb/src/common/tusb_common.h **** // We have to manually pick up bytes since tu_unaligned_uint32_t will still generate unaligned code
 229:tinyusb/src/common/tusb_common.h **** // NOTE: volatile cast to memory to prevent compiler to optimize and generate unaligned code
 230:tinyusb/src/common/tusb_common.h **** // TODO Big Endian may need minor changes
 231:tinyusb/src/common/tusb_common.h **** TU_ATTR_ALWAYS_INLINE static inline uint32_t tu_unaligned_read32(const void* mem)
 232:tinyusb/src/common/tusb_common.h **** {
 233:tinyusb/src/common/tusb_common.h ****   volatile uint8_t const* buf8 = (uint8_t const*) mem;
 234:tinyusb/src/common/tusb_common.h ****   return tu_u32(buf8[3], buf8[2], buf8[1], buf8[0]);
 235:tinyusb/src/common/tusb_common.h **** }
 236:tinyusb/src/common/tusb_common.h **** 
 237:tinyusb/src/common/tusb_common.h **** TU_ATTR_ALWAYS_INLINE static inline void tu_unaligned_write32(void* mem, uint32_t value)
 238:tinyusb/src/common/tusb_common.h **** {
 239:tinyusb/src/common/tusb_common.h ****   volatile uint8_t* buf8 = (uint8_t*) mem;
 240:tinyusb/src/common/tusb_common.h ****   buf8[0] = tu_u32_byte0(value);
 241:tinyusb/src/common/tusb_common.h ****   buf8[1] = tu_u32_byte1(value);
 242:tinyusb/src/common/tusb_common.h ****   buf8[2] = tu_u32_byte2(value);
 243:tinyusb/src/common/tusb_common.h ****   buf8[3] = tu_u32_byte3(value);
 244:tinyusb/src/common/tusb_common.h **** }
 245:tinyusb/src/common/tusb_common.h **** 
 246:tinyusb/src/common/tusb_common.h **** TU_ATTR_ALWAYS_INLINE static inline uint16_t tu_unaligned_read16(const void* mem)
 247:tinyusb/src/common/tusb_common.h **** {
 248:tinyusb/src/common/tusb_common.h ****   volatile uint8_t const* buf8 = (uint8_t const*) mem;
 249:tinyusb/src/common/tusb_common.h ****   return tu_u16(buf8[1], buf8[0]);
 250:tinyusb/src/common/tusb_common.h **** }
 251:tinyusb/src/common/tusb_common.h **** 
 252:tinyusb/src/common/tusb_common.h **** TU_ATTR_ALWAYS_INLINE static inline void tu_unaligned_write16(void* mem, uint16_t value)
 253:tinyusb/src/common/tusb_common.h **** {
 254:tinyusb/src/common/tusb_common.h ****   volatile uint8_t* buf8 = (uint8_t*) mem;
 255:tinyusb/src/common/tusb_common.h ****   buf8[0] = tu_u16_low(value);
 256:tinyusb/src/common/tusb_common.h ****   buf8[1] = tu_u16_high(value);
ARM GAS  /tmp/cc5fbsfm.s 			page 19


 257:tinyusb/src/common/tusb_common.h **** }
 258:tinyusb/src/common/tusb_common.h **** 
 259:tinyusb/src/common/tusb_common.h **** 
 260:tinyusb/src/common/tusb_common.h **** #else
 261:tinyusb/src/common/tusb_common.h **** 
 262:tinyusb/src/common/tusb_common.h **** // MCU that could access unaligned memory natively
 263:tinyusb/src/common/tusb_common.h **** TU_ATTR_ALWAYS_INLINE static inline uint32_t tu_unaligned_read32(const void *mem) {
 289              		.loc 2 263 46 view .LVU83
 290              	.LBB105:
 264:tinyusb/src/common/tusb_common.h ****   return *((uint32_t const *) mem);
 291              		.loc 2 264 3 view .LVU84
 292              		.loc 2 264 10 is_stmt 0 view .LVU85
 293 000a 51F8044B 		ldr	r4, [r1], #4
 294              	.LVL30:
 295              		.loc 2 264 10 view .LVU86
 296              	.LBE105:
 297              	.LBE104:
 129:tinyusb/src/common/tusb_fifo.c ****     ff_buf += 4;
 298              		.loc 1 129 13 view .LVU87
 299 000e 2C60     		str	r4, [r5]
 130:tinyusb/src/common/tusb_fifo.c ****   }
 300              		.loc 1 130 5 is_stmt 1 view .LVU88
 301              	.LVL31:
 127:tinyusb/src/common/tusb_fifo.c ****   {
 302              		.loc 1 127 19 is_stmt 0 view .LVU89
 303 0010 1C46     		mov	r4, r3
 304              	.LVL32:
 305              	.L16:
 127:tinyusb/src/common/tusb_fifo.c ****   {
 306              		.loc 1 127 8 is_stmt 1 view .LVU90
 127:tinyusb/src/common/tusb_fifo.c ****   {
 307              		.loc 1 127 19 is_stmt 0 view .LVU91
 308 0012 631E     		subs	r3, r4, #1
 309 0014 9BB2     		uxth	r3, r3
 310              	.LVL33:
 127:tinyusb/src/common/tusb_fifo.c ****   {
 311              		.loc 1 127 8 view .LVU92
 312 0016 002C     		cmp	r4, #0
 313 0018 F7D1     		bne	.L17
 134:tinyusb/src/common/tusb_fifo.c ****   if ( bytes_rem )
 314              		.loc 1 134 3 is_stmt 1 view .LVU93
 315              	.LVL34:
 135:tinyusb/src/common/tusb_fifo.c ****   {
 316              		.loc 1 135 3 view .LVU94
 135:tinyusb/src/common/tusb_fifo.c ****   {
 317              		.loc 1 135 6 is_stmt 0 view .LVU95
 318 001a 12F00302 		ands	r2, r2, #3
 319              	.LVL35:
 135:tinyusb/src/common/tusb_fifo.c ****   {
 320              		.loc 1 135 6 view .LVU96
 321 001e 01D1     		bne	.L20
 322              	.LVL36:
 323              	.L15:
 142:tinyusb/src/common/tusb_fifo.c **** 
 324              		.loc 1 142 1 view .LVU97
 325 0020 03B0     		add	sp, sp, #12
 326              	.LCFI3:
ARM GAS  /tmp/cc5fbsfm.s 			page 20


 327              		.cfi_remember_state
 328              		.cfi_def_cfa_offset 12
 329              		@ sp needed
 330 0022 30BD     		pop	{r4, r5, pc}
 331              	.LVL37:
 332              	.L20:
 333              	.LCFI4:
 334              		.cfi_restore_state
 335              	.LBB106:
 137:tinyusb/src/common/tusb_fifo.c ****     memcpy(&tmp32, ff_buf, bytes_rem);
 336              		.loc 1 137 5 is_stmt 1 view .LVU98
 137:tinyusb/src/common/tusb_fifo.c ****     memcpy(&tmp32, ff_buf, bytes_rem);
 337              		.loc 1 137 14 is_stmt 0 view .LVU99
 338 0024 0023     		movs	r3, #0
 339              	.LVL38:
 137:tinyusb/src/common/tusb_fifo.c ****     memcpy(&tmp32, ff_buf, bytes_rem);
 340              		.loc 1 137 14 view .LVU100
 341 0026 0193     		str	r3, [sp, #4]
 138:tinyusb/src/common/tusb_fifo.c **** 
 342              		.loc 1 138 5 is_stmt 1 view .LVU101
 343 0028 01A8     		add	r0, sp, #4
 344              	.LVL39:
 138:tinyusb/src/common/tusb_fifo.c **** 
 345              		.loc 1 138 5 is_stmt 0 view .LVU102
 346 002a FFF7FEFF 		bl	memcpy
 347              	.LVL40:
 140:tinyusb/src/common/tusb_fifo.c ****   }
 348              		.loc 1 140 5 is_stmt 1 view .LVU103
 140:tinyusb/src/common/tusb_fifo.c ****   }
 349              		.loc 1 140 13 is_stmt 0 view .LVU104
 350 002e 019B     		ldr	r3, [sp, #4]
 351 0030 2B60     		str	r3, [r5]
 352              	.LBE106:
 142:tinyusb/src/common/tusb_fifo.c **** 
 353              		.loc 1 142 1 view .LVU105
 354 0032 F5E7     		b	.L15
 355              		.cfi_endproc
 356              	.LFE60:
 358              		.section	.text._ff_pull_n,"ax",%progbits
 359              		.align	1
 360              		.syntax unified
 361              		.thumb
 362              		.thumb_func
 363              		.fpu fpv4-sp-d16
 365              	_ff_pull_n:
 366              	.LVL41:
 367              	.LFB64:
 238:tinyusb/src/common/tusb_fifo.c ****   uint16_t const lin_count = f->depth - rd_ptr;
 368              		.loc 1 238 1 is_stmt 1 view -0
 369              		.cfi_startproc
 370              		@ args = 4, pretend = 0, frame = 8
 371              		@ frame_needed = 0, uses_anonymous_args = 0
 238:tinyusb/src/common/tusb_fifo.c ****   uint16_t const lin_count = f->depth - rd_ptr;
 372              		.loc 1 238 1 is_stmt 0 view .LVU107
 373 0000 2DE9F047 		push	{r4, r5, r6, r7, r8, r9, r10, lr}
 374              	.LCFI5:
 375              		.cfi_def_cfa_offset 32
ARM GAS  /tmp/cc5fbsfm.s 			page 21


 376              		.cfi_offset 4, -32
 377              		.cfi_offset 5, -28
 378              		.cfi_offset 6, -24
 379              		.cfi_offset 7, -20
 380              		.cfi_offset 8, -16
 381              		.cfi_offset 9, -12
 382              		.cfi_offset 10, -8
 383              		.cfi_offset 14, -4
 384 0004 82B0     		sub	sp, sp, #8
 385              	.LCFI6:
 386              		.cfi_def_cfa_offset 40
 387 0006 0646     		mov	r6, r0
 388 0008 0F46     		mov	r7, r1
 389 000a 9DF82810 		ldrb	r1, [sp, #40]	@ zero_extendqisi2
 390              	.LVL42:
 239:tinyusb/src/common/tusb_fifo.c ****   uint16_t const wrap_count = n - lin_count; // only used if wrapped
 391              		.loc 1 239 3 is_stmt 1 view .LVU108
 239:tinyusb/src/common/tusb_fifo.c ****   uint16_t const wrap_count = n - lin_count; // only used if wrapped
 392              		.loc 1 239 31 is_stmt 0 view .LVU109
 393 000e B0F804C0 		ldrh	ip, [r0, #4]
 239:tinyusb/src/common/tusb_fifo.c ****   uint16_t const wrap_count = n - lin_count; // only used if wrapped
 394              		.loc 1 239 18 view .LVU110
 395 0012 ACEB0304 		sub	r4, ip, r3
 396 0016 1FFA84FE 		uxth	lr, r4
 397              	.LVL43:
 240:tinyusb/src/common/tusb_fifo.c **** 
 398              		.loc 1 240 3 is_stmt 1 view .LVU111
 240:tinyusb/src/common/tusb_fifo.c **** 
 399              		.loc 1 240 18 is_stmt 0 view .LVU112
 400 001a A3EB0C0C 		sub	ip, r3, ip
 401 001e 9444     		add	ip, ip, r2
 402              	.LVL44:
 242:tinyusb/src/common/tusb_fifo.c ****   uint16_t wrap_bytes = wrap_count * f->item_size;
 403              		.loc 1 242 3 is_stmt 1 view .LVU113
 242:tinyusb/src/common/tusb_fifo.c ****   uint16_t wrap_bytes = wrap_count * f->item_size;
 404              		.loc 1 242 37 is_stmt 0 view .LVU114
 405 0020 B0F80690 		ldrh	r9, [r0, #6]
 406 0024 C9F30E0A 		ubfx	r10, r9, #0, #15
 242:tinyusb/src/common/tusb_fifo.c ****   uint16_t wrap_bytes = wrap_count * f->item_size;
 407              		.loc 1 242 12 view .LVU115
 408 0028 14FB0AF4 		smulbb	r4, r4, r10
 409 002c A4B2     		uxth	r4, r4
 410              	.LVL45:
 243:tinyusb/src/common/tusb_fifo.c **** 
 411              		.loc 1 243 3 is_stmt 1 view .LVU116
 243:tinyusb/src/common/tusb_fifo.c **** 
 412              		.loc 1 243 12 is_stmt 0 view .LVU117
 413 002e 1CFB0AFC 		smulbb	ip, ip, r10
 414              	.LVL46:
 243:tinyusb/src/common/tusb_fifo.c **** 
 415              		.loc 1 243 12 view .LVU118
 416 0032 1FFA8CF5 		uxth	r5, ip
 417              	.LVL47:
 246:tinyusb/src/common/tusb_fifo.c **** 
 418              		.loc 1 246 3 is_stmt 1 view .LVU119
 246:tinyusb/src/common/tusb_fifo.c **** 
 419              		.loc 1 246 22 is_stmt 0 view .LVU120
ARM GAS  /tmp/cc5fbsfm.s 			page 22


 420 0036 0068     		ldr	r0, [r0]
 421              	.LVL48:
 246:tinyusb/src/common/tusb_fifo.c **** 
 422              		.loc 1 246 12 view .LVU121
 423 0038 0AFB0308 		mla	r8, r10, r3, r0
 424              	.LVL49:
 248:tinyusb/src/common/tusb_fifo.c ****   {
 425              		.loc 1 248 3 is_stmt 1 view .LVU122
 426 003c 21B1     		cbz	r1, .L22
 427 003e 0129     		cmp	r1, #1
 428 0040 16D0     		beq	.L23
 429              	.LVL50:
 430              	.L21:
 316:tinyusb/src/common/tusb_fifo.c **** 
 431              		.loc 1 316 1 is_stmt 0 view .LVU123
 432 0042 02B0     		add	sp, sp, #8
 433              	.LCFI7:
 434              		.cfi_remember_state
 435              		.cfi_def_cfa_offset 32
 436              		@ sp needed
 437 0044 BDE8F087 		pop	{r4, r5, r6, r7, r8, r9, r10, pc}
 438              	.LVL51:
 439              	.L22:
 440              	.LCFI8:
 441              		.cfi_restore_state
 251:tinyusb/src/common/tusb_fifo.c ****       {
 442              		.loc 1 251 7 is_stmt 1 view .LVU124
 251:tinyusb/src/common/tusb_fifo.c ****       {
 443              		.loc 1 251 10 is_stmt 0 view .LVU125
 444 0048 9645     		cmp	lr, r2
 445 004a 06D3     		bcc	.L25
 254:tinyusb/src/common/tusb_fifo.c ****       }
 446              		.loc 1 254 9 is_stmt 1 view .LVU126
 447 004c 0AFB02F2 		mul	r2, r10, r2
 448              	.LVL52:
 254:tinyusb/src/common/tusb_fifo.c ****       }
 449              		.loc 1 254 9 is_stmt 0 view .LVU127
 450 0050 4146     		mov	r1, r8
 451 0052 3846     		mov	r0, r7
 452 0054 FFF7FEFF 		bl	memcpy
 453              	.LVL53:
 254:tinyusb/src/common/tusb_fifo.c ****       }
 454              		.loc 1 254 9 view .LVU128
 455 0058 F3E7     		b	.L21
 456              	.LVL54:
 457              	.L25:
 261:tinyusb/src/common/tusb_fifo.c **** 
 458              		.loc 1 261 9 is_stmt 1 view .LVU129
 459 005a 2246     		mov	r2, r4
 460              	.LVL55:
 261:tinyusb/src/common/tusb_fifo.c **** 
 461              		.loc 1 261 9 is_stmt 0 view .LVU130
 462 005c 4146     		mov	r1, r8
 463 005e 3846     		mov	r0, r7
 464 0060 FFF7FEFF 		bl	memcpy
 465              	.LVL56:
 264:tinyusb/src/common/tusb_fifo.c ****       }
ARM GAS  /tmp/cc5fbsfm.s 			page 23


 466              		.loc 1 264 9 is_stmt 1 view .LVU131
 467 0064 2A46     		mov	r2, r5
 468 0066 3168     		ldr	r1, [r6]
 469 0068 3819     		adds	r0, r7, r4
 470 006a FFF7FEFF 		bl	memcpy
 471              	.LVL57:
 472 006e E8E7     		b	.L21
 473              	.LVL58:
 474              	.L23:
 269:tinyusb/src/common/tusb_fifo.c ****       {
 475              		.loc 1 269 7 view .LVU132
 269:tinyusb/src/common/tusb_fifo.c ****       {
 476              		.loc 1 269 10 is_stmt 0 view .LVU133
 477 0070 9645     		cmp	lr, r2
 478 0072 07D3     		bcc	.L26
 272:tinyusb/src/common/tusb_fifo.c ****       }
 479              		.loc 1 272 9 is_stmt 1 view .LVU134
 480 0074 1AFB02F2 		smulbb	r2, r10, r2
 481              	.LVL59:
 272:tinyusb/src/common/tusb_fifo.c ****       }
 482              		.loc 1 272 9 is_stmt 0 view .LVU135
 483 0078 92B2     		uxth	r2, r2
 484 007a 4146     		mov	r1, r8
 485 007c 3846     		mov	r0, r7
 486 007e FFF7FEFF 		bl	_ff_pull_const_addr
 487              	.LVL60:
 272:tinyusb/src/common/tusb_fifo.c ****       }
 488              		.loc 1 272 9 view .LVU136
 489 0082 DEE7     		b	.L21
 490              	.LVL61:
 491              	.L26:
 492              	.LBB107:
 279:tinyusb/src/common/tusb_fifo.c ****         _ff_pull_const_addr(app_buf, ff_buf, lin_4n_bytes);
 493              		.loc 1 279 9 is_stmt 1 view .LVU137
 279:tinyusb/src/common/tusb_fifo.c ****         _ff_pull_const_addr(app_buf, ff_buf, lin_4n_bytes);
 494              		.loc 1 279 18 is_stmt 0 view .LVU138
 495 0084 24F00309 		bic	r9, r4, #3
 496 0088 1FFA89F9 		uxth	r9, r9
 497              	.LVL62:
 280:tinyusb/src/common/tusb_fifo.c ****         ff_buf += lin_4n_bytes;
 498              		.loc 1 280 9 is_stmt 1 view .LVU139
 499 008c 4A46     		mov	r2, r9
 500              	.LVL63:
 280:tinyusb/src/common/tusb_fifo.c ****         ff_buf += lin_4n_bytes;
 501              		.loc 1 280 9 is_stmt 0 view .LVU140
 502 008e 4146     		mov	r1, r8
 503 0090 3846     		mov	r0, r7
 504 0092 FFF7FEFF 		bl	_ff_pull_const_addr
 505              	.LVL64:
 281:tinyusb/src/common/tusb_fifo.c **** 
 506              		.loc 1 281 9 is_stmt 1 view .LVU141
 281:tinyusb/src/common/tusb_fifo.c **** 
 507              		.loc 1 281 16 is_stmt 0 view .LVU142
 508 0096 C844     		add	r8, r8, r9
 509              	.LVL65:
 284:tinyusb/src/common/tusb_fifo.c ****         if (rem > 0)
 510              		.loc 1 284 9 is_stmt 1 view .LVU143
ARM GAS  /tmp/cc5fbsfm.s 			page 24


 285:tinyusb/src/common/tusb_fifo.c ****         {
 511              		.loc 1 285 9 view .LVU144
 285:tinyusb/src/common/tusb_fifo.c ****         {
 512              		.loc 1 285 12 is_stmt 0 view .LVU145
 513 0098 14F00304 		ands	r4, r4, #3
 514              	.LVL66:
 285:tinyusb/src/common/tusb_fifo.c ****         {
 515              		.loc 1 285 12 view .LVU146
 516 009c 2BD0     		beq	.L27
 517              	.LBB108:
 287:tinyusb/src/common/tusb_fifo.c **** 
 518              		.loc 1 287 11 is_stmt 1 view .LVU147
 519              	.LVL67:
 289:tinyusb/src/common/tusb_fifo.c ****           wrap_bytes -= remrem;
 520              		.loc 1 289 11 view .LVU148
 289:tinyusb/src/common/tusb_fifo.c ****           wrap_bytes -= remrem;
 521              		.loc 1 289 38 is_stmt 0 view .LVU149
 522 009e C4F10400 		rsb	r0, r4, #4
 523 00a2 80B2     		uxth	r0, r0
 524              	.LVL68:
 525              	.LBB109:
 526              	.LBI109:
 149:tinyusb/src/common/tusb_common.h **** TU_ATTR_ALWAYS_INLINE static inline uint32_t tu_min32 (uint32_t x, uint32_t y) { return (x < y) ? x
 527              		.loc 2 149 46 is_stmt 1 view .LVU150
 528              	.LBB110:
 149:tinyusb/src/common/tusb_common.h **** TU_ATTR_ALWAYS_INLINE static inline uint32_t tu_min32 (uint32_t x, uint32_t y) { return (x < y) ? x
 529              		.loc 2 149 82 view .LVU151
 149:tinyusb/src/common/tusb_common.h **** TU_ATTR_ALWAYS_INLINE static inline uint32_t tu_min32 (uint32_t x, uint32_t y) { return (x < y) ? x
 530              		.loc 2 149 101 is_stmt 0 view .LVU152
 531 00a4 A842     		cmp	r0, r5
 532 00a6 28BF     		it	cs
 533 00a8 2846     		movcs	r0, r5
 534              	.LVL69:
 149:tinyusb/src/common/tusb_common.h **** TU_ATTR_ALWAYS_INLINE static inline uint32_t tu_min32 (uint32_t x, uint32_t y) { return (x < y) ? x
 535              		.loc 2 149 101 view .LVU153
 536              	.LBE110:
 537              	.LBE109:
 289:tinyusb/src/common/tusb_fifo.c ****           wrap_bytes -= remrem;
 538              		.loc 1 289 19 view .LVU154
 539 00aa C0B2     		uxtb	r0, r0
 540              	.LVL70:
 290:tinyusb/src/common/tusb_fifo.c **** 
 541              		.loc 1 290 11 is_stmt 1 view .LVU155
 290:tinyusb/src/common/tusb_fifo.c **** 
 542              		.loc 1 290 22 is_stmt 0 view .LVU156
 543 00ac A5EB000C 		sub	ip, r5, r0
 544 00b0 1FFA8CF5 		uxth	r5, ip
 545              	.LVL71:
 292:tinyusb/src/common/tusb_fifo.c ****           uint8_t * dst_u8 = (uint8_t *)&tmp32;
 546              		.loc 1 292 11 is_stmt 1 view .LVU157
 292:tinyusb/src/common/tusb_fifo.c ****           uint8_t * dst_u8 = (uint8_t *)&tmp32;
 547              		.loc 1 292 20 is_stmt 0 view .LVU158
 548 00b4 0023     		movs	r3, #0
 549 00b6 0193     		str	r3, [sp, #4]
 293:tinyusb/src/common/tusb_fifo.c **** 
 550              		.loc 1 293 11 is_stmt 1 view .LVU159
 551              	.LVL72:
ARM GAS  /tmp/cc5fbsfm.s 			page 25


 296:tinyusb/src/common/tusb_fifo.c **** 
 552              		.loc 1 296 11 view .LVU160
 293:tinyusb/src/common/tusb_fifo.c **** 
 553              		.loc 1 293 21 is_stmt 0 view .LVU161
 554 00b8 01AB     		add	r3, sp, #4
 555              	.LVL73:
 296:tinyusb/src/common/tusb_fifo.c **** 
 556              		.loc 1 296 16 view .LVU162
 557 00ba 04E0     		b	.L28
 558              	.LVL74:
 559              	.L29:
 296:tinyusb/src/common/tusb_fifo.c **** 
 560              		.loc 1 296 24 is_stmt 1 discriminator 2 view .LVU163
 296:tinyusb/src/common/tusb_fifo.c **** 
 561              		.loc 1 296 36 is_stmt 0 discriminator 2 view .LVU164
 562 00bc 18F8012B 		ldrb	r2, [r8], #1	@ zero_extendqisi2
 563              	.LVL75:
 296:tinyusb/src/common/tusb_fifo.c **** 
 564              		.loc 1 296 34 discriminator 2 view .LVU165
 565 00c0 03F8012B 		strb	r2, [r3], #1
 566              	.LVL76:
 296:tinyusb/src/common/tusb_fifo.c **** 
 567              		.loc 1 296 20 discriminator 2 view .LVU166
 568 00c4 0C46     		mov	r4, r1
 569              	.LVL77:
 570              	.L28:
 296:tinyusb/src/common/tusb_fifo.c **** 
 571              		.loc 1 296 16 is_stmt 1 discriminator 1 view .LVU167
 296:tinyusb/src/common/tusb_fifo.c **** 
 572              		.loc 1 296 20 is_stmt 0 discriminator 1 view .LVU168
 573 00c6 611E     		subs	r1, r4, #1
 574 00c8 C9B2     		uxtb	r1, r1
 575              	.LVL78:
 296:tinyusb/src/common/tusb_fifo.c **** 
 576              		.loc 1 296 16 discriminator 1 view .LVU169
 577 00ca 002C     		cmp	r4, #0
 578 00cc F6D1     		bne	.L29
 299:tinyusb/src/common/tusb_fifo.c ****           while(remrem--) *dst_u8++ = *ff_buf++;
 579              		.loc 1 299 11 is_stmt 1 view .LVU170
 299:tinyusb/src/common/tusb_fifo.c ****           while(remrem--) *dst_u8++ = *ff_buf++;
 580              		.loc 1 299 18 is_stmt 0 view .LVU171
 581 00ce 3168     		ldr	r1, [r6]
 582              	.LVL79:
 300:tinyusb/src/common/tusb_fifo.c **** 
 583              		.loc 1 300 11 is_stmt 1 view .LVU172
 300:tinyusb/src/common/tusb_fifo.c **** 
 584              		.loc 1 300 16 is_stmt 0 view .LVU173
 585 00d0 04E0     		b	.L30
 586              	.LVL80:
 587              	.L31:
 300:tinyusb/src/common/tusb_fifo.c **** 
 588              		.loc 1 300 27 is_stmt 1 discriminator 2 view .LVU174
 300:tinyusb/src/common/tusb_fifo.c **** 
 589              		.loc 1 300 39 is_stmt 0 discriminator 2 view .LVU175
 590 00d2 11F8010B 		ldrb	r0, [r1], #1	@ zero_extendqisi2
 591              	.LVL81:
 300:tinyusb/src/common/tusb_fifo.c **** 
ARM GAS  /tmp/cc5fbsfm.s 			page 26


 592              		.loc 1 300 37 discriminator 2 view .LVU176
 593 00d6 03F8010B 		strb	r0, [r3], #1
 594              	.LVL82:
 300:tinyusb/src/common/tusb_fifo.c **** 
 595              		.loc 1 300 23 discriminator 2 view .LVU177
 596 00da 1046     		mov	r0, r2
 597              	.LVL83:
 598              	.L30:
 300:tinyusb/src/common/tusb_fifo.c **** 
 599              		.loc 1 300 16 is_stmt 1 discriminator 1 view .LVU178
 300:tinyusb/src/common/tusb_fifo.c **** 
 600              		.loc 1 300 23 is_stmt 0 discriminator 1 view .LVU179
 601 00dc 421E     		subs	r2, r0, #1
 602 00de D2B2     		uxtb	r2, r2
 603              	.LVL84:
 300:tinyusb/src/common/tusb_fifo.c **** 
 604              		.loc 1 300 16 discriminator 1 view .LVU180
 605 00e0 0028     		cmp	r0, #0
 606 00e2 F6D1     		bne	.L31
 302:tinyusb/src/common/tusb_fifo.c ****         }
 607              		.loc 1 302 11 is_stmt 1 view .LVU181
 302:tinyusb/src/common/tusb_fifo.c ****         }
 608              		.loc 1 302 19 is_stmt 0 view .LVU182
 609 00e4 019B     		ldr	r3, [sp, #4]
 610              	.LVL85:
 302:tinyusb/src/common/tusb_fifo.c ****         }
 611              		.loc 1 302 19 view .LVU183
 612 00e6 3B60     		str	r3, [r7]
 613              	.LVL86:
 614              	.L32:
 302:tinyusb/src/common/tusb_fifo.c ****         }
 615              		.loc 1 302 19 view .LVU184
 616              	.LBE108:
 310:tinyusb/src/common/tusb_fifo.c ****       }
 617              		.loc 1 310 9 is_stmt 1 view .LVU185
 310:tinyusb/src/common/tusb_fifo.c ****       }
 618              		.loc 1 310 12 is_stmt 0 view .LVU186
 619 00e8 002D     		cmp	r5, #0
 620 00ea AAD0     		beq	.L21
 310:tinyusb/src/common/tusb_fifo.c ****       }
 621              		.loc 1 310 29 is_stmt 1 discriminator 1 view .LVU187
 622 00ec 2A46     		mov	r2, r5
 623 00ee 3846     		mov	r0, r7
 624 00f0 FFF7FEFF 		bl	_ff_pull_const_addr
 625              	.LVL87:
 310:tinyusb/src/common/tusb_fifo.c ****       }
 626              		.loc 1 310 29 is_stmt 0 discriminator 1 view .LVU188
 627              	.LBE107:
 316:tinyusb/src/common/tusb_fifo.c **** 
 628              		.loc 1 316 1 discriminator 1 view .LVU189
 629 00f4 A5E7     		b	.L21
 630              	.LVL88:
 631              	.L27:
 632              	.LBB111:
 306:tinyusb/src/common/tusb_fifo.c ****         }
 633              		.loc 1 306 11 is_stmt 1 view .LVU190
 306:tinyusb/src/common/tusb_fifo.c ****         }
ARM GAS  /tmp/cc5fbsfm.s 			page 27


 634              		.loc 1 306 18 is_stmt 0 view .LVU191
 635 00f6 3168     		ldr	r1, [r6]
 636              	.LVL89:
 306:tinyusb/src/common/tusb_fifo.c ****         }
 637              		.loc 1 306 18 view .LVU192
 638 00f8 F6E7     		b	.L32
 639              	.LBE111:
 640              		.cfi_endproc
 641              	.LFE64:
 643              		.section	.text._tu_fifo_peek_n,"ax",%progbits
 644              		.align	1
 645              		.syntax unified
 646              		.thumb
 647              		.thumb_func
 648              		.fpu fpv4-sp-d16
 650              	_tu_fifo_peek_n:
 651              	.LVL90:
 652              	.LFB71:
 435:tinyusb/src/common/tusb_fifo.c **** 
 436:tinyusb/src/common/tusb_fifo.c **** // Works on local copies of w and r
 437:tinyusb/src/common/tusb_fifo.c **** // Must be protected by mutexes since in case of an overflow read pointer gets modified
 438:tinyusb/src/common/tusb_fifo.c **** static uint16_t _tu_fifo_peek_n(tu_fifo_t* f, void * p_buffer, uint16_t n, uint16_t wr_idx, uint16_
 439:tinyusb/src/common/tusb_fifo.c **** {
 653              		.loc 1 439 1 is_stmt 1 view -0
 654              		.cfi_startproc
 655              		@ args = 8, pretend = 0, frame = 0
 656              		@ frame_needed = 0, uses_anonymous_args = 0
 657              		.loc 1 439 1 is_stmt 0 view .LVU194
 658 0000 30B5     		push	{r4, r5, lr}
 659              	.LCFI9:
 660              		.cfi_def_cfa_offset 12
 661              		.cfi_offset 4, -12
 662              		.cfi_offset 5, -8
 663              		.cfi_offset 14, -4
 664 0002 83B0     		sub	sp, sp, #12
 665              	.LCFI10:
 666              		.cfi_def_cfa_offset 24
 667 0004 9E46     		mov	lr, r3
 668 0006 BDF81830 		ldrh	r3, [sp, #24]
 669              	.LVL91:
 440:tinyusb/src/common/tusb_fifo.c ****   uint16_t cnt = _ff_count(f->depth, wr_idx, rd_idx);
 670              		.loc 1 440 3 is_stmt 1 view .LVU195
 671              		.loc 1 440 18 is_stmt 0 view .LVU196
 672 000a B0F804C0 		ldrh	ip, [r0, #4]
 673              	.LVL92:
 674              	.LBB112:
 675              	.LBI112:
 324:tinyusb/src/common/tusb_fifo.c **** {
 676              		.loc 1 324 10 is_stmt 1 view .LVU197
 677              	.LBB113:
 327:tinyusb/src/common/tusb_fifo.c ****   {
 678              		.loc 1 327 3 view .LVU198
 327:tinyusb/src/common/tusb_fifo.c ****   {
 679              		.loc 1 327 6 is_stmt 0 view .LVU199
 680 000e 9E45     		cmp	lr, r3
 681 0010 10D3     		bcc	.L35
 329:tinyusb/src/common/tusb_fifo.c ****   } else
ARM GAS  /tmp/cc5fbsfm.s 			page 28


 682              		.loc 1 329 5 is_stmt 1 view .LVU200
 329:tinyusb/src/common/tusb_fifo.c ****   } else
 683              		.loc 1 329 12 is_stmt 0 view .LVU201
 684 0012 AEEB0304 		sub	r4, lr, r3
 685 0016 A4B2     		uxth	r4, r4
 686              	.L36:
 687              	.LVL93:
 329:tinyusb/src/common/tusb_fifo.c ****   } else
 688              		.loc 1 329 12 view .LVU202
 689              	.LBE113:
 690              	.LBE112:
 441:tinyusb/src/common/tusb_fifo.c **** 
 442:tinyusb/src/common/tusb_fifo.c ****   // nothing to peek
 443:tinyusb/src/common/tusb_fifo.c ****   if ( cnt == 0 ) return 0;
 691              		.loc 1 443 3 is_stmt 1 view .LVU203
 692              		.loc 1 443 6 is_stmt 0 view .LVU204
 693 0018 1CB3     		cbz	r4, .L37
 444:tinyusb/src/common/tusb_fifo.c **** 
 445:tinyusb/src/common/tusb_fifo.c ****   // Check overflow and correct if required
 446:tinyusb/src/common/tusb_fifo.c ****   if ( cnt > f->depth )
 694              		.loc 1 446 3 is_stmt 1 view .LVU205
 695              		.loc 1 446 6 is_stmt 0 view .LVU206
 696 001a A445     		cmp	ip, r4
 697 001c 06D2     		bcs	.L38
 447:tinyusb/src/common/tusb_fifo.c ****   {
 448:tinyusb/src/common/tusb_fifo.c ****     rd_idx = _ff_correct_read_index(f, wr_idx);
 698              		.loc 1 448 5 is_stmt 1 view .LVU207
 699              	.LVL94:
 700              	.LBB115:
 701              	.LBI115:
 396:tinyusb/src/common/tusb_fifo.c **** {
 702              		.loc 1 396 10 view .LVU208
 703              	.LBB116:
 398:tinyusb/src/common/tusb_fifo.c ****   if ( wr_idx >= f->depth )
 704              		.loc 1 398 3 view .LVU209
 399:tinyusb/src/common/tusb_fifo.c ****   {
 705              		.loc 1 399 3 view .LVU210
 399:tinyusb/src/common/tusb_fifo.c ****   {
 706              		.loc 1 399 6 is_stmt 0 view .LVU211
 707 001e F445     		cmp	ip, lr
 708 0020 10D8     		bhi	.L39
 401:tinyusb/src/common/tusb_fifo.c ****   }else
 709              		.loc 1 401 5 is_stmt 1 view .LVU212
 401:tinyusb/src/common/tusb_fifo.c ****   }else
 710              		.loc 1 401 12 is_stmt 0 view .LVU213
 711 0022 AEEB0C03 		sub	r3, lr, ip
 712 0026 9BB2     		uxth	r3, r3
 713              	.LVL95:
 714              	.L40:
 407:tinyusb/src/common/tusb_fifo.c **** 
 715              		.loc 1 407 3 is_stmt 1 view .LVU214
 407:tinyusb/src/common/tusb_fifo.c **** 
 716              		.loc 1 407 13 is_stmt 0 view .LVU215
 717 0028 4381     		strh	r3, [r0, #10]	@ movhi
 409:tinyusb/src/common/tusb_fifo.c **** }
 718              		.loc 1 409 3 is_stmt 1 view .LVU216
 719              	.LVL96:
ARM GAS  /tmp/cc5fbsfm.s 			page 29


 409:tinyusb/src/common/tusb_fifo.c **** }
 720              		.loc 1 409 3 is_stmt 0 view .LVU217
 721              	.LBE116:
 722              	.LBE115:
 449:tinyusb/src/common/tusb_fifo.c ****     cnt = f->depth;
 723              		.loc 1 449 5 is_stmt 1 view .LVU218
 724              		.loc 1 449 9 is_stmt 0 view .LVU219
 725 002a 6446     		mov	r4, ip
 726              	.LVL97:
 727              	.L38:
 450:tinyusb/src/common/tusb_fifo.c ****   }
 451:tinyusb/src/common/tusb_fifo.c **** 
 452:tinyusb/src/common/tusb_fifo.c ****   // Check if we can read something at and after offset - if too less is available we read what rem
 453:tinyusb/src/common/tusb_fifo.c ****   if ( cnt < n ) n = cnt;
 728              		.loc 1 453 3 is_stmt 1 view .LVU220
 729              		.loc 1 453 6 is_stmt 0 view .LVU221
 730 002c 9442     		cmp	r4, r2
 731 002e 10D3     		bcc	.L42
 732 0030 1446     		mov	r4, r2
 733              	.LVL98:
 454:tinyusb/src/common/tusb_fifo.c **** 
 455:tinyusb/src/common/tusb_fifo.c ****   uint16_t rd_ptr = idx2ptr(f->depth, rd_idx);
 734              		.loc 1 455 3 is_stmt 1 view .LVU222
 735              	.LBB118:
 736              	.LBI118:
 385:tinyusb/src/common/tusb_fifo.c **** {
 737              		.loc 1 385 10 view .LVU223
 738              	.LBB119:
 388:tinyusb/src/common/tusb_fifo.c ****   return idx;
 739              		.loc 1 388 3 view .LVU224
 388:tinyusb/src/common/tusb_fifo.c ****   return idx;
 740              		.loc 1 388 9 is_stmt 0 view .LVU225
 741 0032 0EE0     		b	.L42
 742              	.LVL99:
 743              	.L35:
 388:tinyusb/src/common/tusb_fifo.c ****   return idx;
 744              		.loc 1 388 9 view .LVU226
 745              	.LBE119:
 746              	.LBE118:
 747              	.LBB121:
 748              	.LBB114:
 332:tinyusb/src/common/tusb_fifo.c ****   }
 749              		.loc 1 332 5 is_stmt 1 view .LVU227
 332:tinyusb/src/common/tusb_fifo.c ****   }
 750              		.loc 1 332 32 is_stmt 0 view .LVU228
 751 0034 AEEB0304 		sub	r4, lr, r3
 332:tinyusb/src/common/tusb_fifo.c ****   }
 752              		.loc 1 332 12 view .LVU229
 753 0038 4FEA4C05 		lsl	r5, ip, #1
 754 003c 15FA84F4 		uxtah	r4, r5, r4
 755 0040 A4B2     		uxth	r4, r4
 756 0042 E9E7     		b	.L36
 757              	.LVL100:
 758              	.L39:
 332:tinyusb/src/common/tusb_fifo.c ****   }
 759              		.loc 1 332 12 view .LVU230
 760              	.LBE114:
ARM GAS  /tmp/cc5fbsfm.s 			page 30


 761              	.LBE121:
 762              	.LBB122:
 763              	.LBB117:
 404:tinyusb/src/common/tusb_fifo.c ****   }
 764              		.loc 1 404 5 is_stmt 1 view .LVU231
 404:tinyusb/src/common/tusb_fifo.c ****   }
 765              		.loc 1 404 12 is_stmt 0 view .LVU232
 766 0044 0CEB0E03 		add	r3, ip, lr
 767 0048 9BB2     		uxth	r3, r3
 768              	.LVL101:
 404:tinyusb/src/common/tusb_fifo.c ****   }
 769              		.loc 1 404 12 view .LVU233
 770 004a EDE7     		b	.L40
 771              	.LVL102:
 772              	.L43:
 404:tinyusb/src/common/tusb_fifo.c ****   }
 773              		.loc 1 404 12 view .LVU234
 774              	.LBE117:
 775              	.LBE122:
 776              	.LBB123:
 777              	.LBB120:
 388:tinyusb/src/common/tusb_fifo.c ****   return idx;
 778              		.loc 1 388 26 is_stmt 1 view .LVU235
 388:tinyusb/src/common/tusb_fifo.c ****   return idx;
 779              		.loc 1 388 30 is_stmt 0 view .LVU236
 780 004c A3EB0C03 		sub	r3, r3, ip
 781              	.LVL103:
 388:tinyusb/src/common/tusb_fifo.c ****   return idx;
 782              		.loc 1 388 30 view .LVU237
 783 0050 9BB2     		uxth	r3, r3
 784              	.LVL104:
 785              	.L42:
 388:tinyusb/src/common/tusb_fifo.c ****   return idx;
 786              		.loc 1 388 9 is_stmt 1 view .LVU238
 787 0052 9C45     		cmp	ip, r3
 788 0054 FAD9     		bls	.L43
 389:tinyusb/src/common/tusb_fifo.c **** }
 789              		.loc 1 389 3 view .LVU239
 790              	.LVL105:
 389:tinyusb/src/common/tusb_fifo.c **** }
 791              		.loc 1 389 3 is_stmt 0 view .LVU240
 792              	.LBE120:
 793              	.LBE123:
 456:tinyusb/src/common/tusb_fifo.c **** 
 457:tinyusb/src/common/tusb_fifo.c ****   // Peek data
 458:tinyusb/src/common/tusb_fifo.c ****   _ff_pull_n(f, p_buffer, n, rd_ptr, copy_mode);
 794              		.loc 1 458 3 is_stmt 1 view .LVU241
 795 0056 9DF81C20 		ldrb	r2, [sp, #28]	@ zero_extendqisi2
 796 005a 0092     		str	r2, [sp]
 797 005c 2246     		mov	r2, r4
 798 005e FFF7FEFF 		bl	_ff_pull_n
 799              	.LVL106:
 459:tinyusb/src/common/tusb_fifo.c **** 
 460:tinyusb/src/common/tusb_fifo.c ****   return n;
 800              		.loc 1 460 3 view .LVU242
 801              	.L37:
 461:tinyusb/src/common/tusb_fifo.c **** }
ARM GAS  /tmp/cc5fbsfm.s 			page 31


 802              		.loc 1 461 1 is_stmt 0 view .LVU243
 803 0062 2046     		mov	r0, r4
 804 0064 03B0     		add	sp, sp, #12
 805              	.LCFI11:
 806              		.cfi_def_cfa_offset 12
 807              		@ sp needed
 808 0066 30BD     		pop	{r4, r5, pc}
 809              		.loc 1 461 1 view .LVU244
 810              		.cfi_endproc
 811              	.LFE71:
 813              		.section	.text._tu_fifo_read_n,"ax",%progbits
 814              		.align	1
 815              		.syntax unified
 816              		.thumb
 817              		.thumb_func
 818              		.fpu fpv4-sp-d16
 820              	_tu_fifo_read_n:
 821              	.LVL107:
 822              	.LFB73:
 462:tinyusb/src/common/tusb_fifo.c **** 
 463:tinyusb/src/common/tusb_fifo.c **** static uint16_t _tu_fifo_write_n(tu_fifo_t* f, const void * data, uint16_t n, tu_fifo_copy_mode_t c
 464:tinyusb/src/common/tusb_fifo.c **** {
 465:tinyusb/src/common/tusb_fifo.c ****   if ( n == 0 ) return 0;
 466:tinyusb/src/common/tusb_fifo.c **** 
 467:tinyusb/src/common/tusb_fifo.c ****   _ff_lock(f->mutex_wr);
 468:tinyusb/src/common/tusb_fifo.c **** 
 469:tinyusb/src/common/tusb_fifo.c ****   uint16_t wr_idx = f->wr_idx;
 470:tinyusb/src/common/tusb_fifo.c ****   uint16_t rd_idx = f->rd_idx;
 471:tinyusb/src/common/tusb_fifo.c **** 
 472:tinyusb/src/common/tusb_fifo.c ****   uint8_t const* buf8 = (uint8_t const*) data;
 473:tinyusb/src/common/tusb_fifo.c **** 
 474:tinyusb/src/common/tusb_fifo.c ****   TU_LOG(TU_FIFO_DBG, "rd = %3u, wr = %3u, count = %3u, remain = %3u, n = %3u:  ",
 475:tinyusb/src/common/tusb_fifo.c ****                        rd_idx, wr_idx, _ff_count(f->depth, wr_idx, rd_idx), _ff_remaining(f->depth,
 476:tinyusb/src/common/tusb_fifo.c **** 
 477:tinyusb/src/common/tusb_fifo.c ****   if ( !f->overwritable )
 478:tinyusb/src/common/tusb_fifo.c ****   {
 479:tinyusb/src/common/tusb_fifo.c ****     // limit up to full
 480:tinyusb/src/common/tusb_fifo.c ****     uint16_t const remain = _ff_remaining(f->depth, wr_idx, rd_idx);
 481:tinyusb/src/common/tusb_fifo.c ****     n = tu_min16(n, remain);
 482:tinyusb/src/common/tusb_fifo.c ****   }
 483:tinyusb/src/common/tusb_fifo.c ****   else
 484:tinyusb/src/common/tusb_fifo.c ****   {
 485:tinyusb/src/common/tusb_fifo.c ****     // In over-writable mode, fifo_write() is allowed even when fifo is full. In such case,
 486:tinyusb/src/common/tusb_fifo.c ****     // oldest data in fifo i.e at read pointer data will be overwritten
 487:tinyusb/src/common/tusb_fifo.c ****     // Note: we can modify read buffer contents but we must not modify the read index itself within
 488:tinyusb/src/common/tusb_fifo.c ****     // Since it would end up in a race condition with read functions!
 489:tinyusb/src/common/tusb_fifo.c ****     if ( n >= f->depth )
 490:tinyusb/src/common/tusb_fifo.c ****     {
 491:tinyusb/src/common/tusb_fifo.c ****       // Only copy last part
 492:tinyusb/src/common/tusb_fifo.c ****       if ( copy_mode == TU_FIFO_COPY_INC )
 493:tinyusb/src/common/tusb_fifo.c ****       {
 494:tinyusb/src/common/tusb_fifo.c ****         buf8 += (n - f->depth) * f->item_size;
 495:tinyusb/src/common/tusb_fifo.c ****       }else
 496:tinyusb/src/common/tusb_fifo.c ****       {
 497:tinyusb/src/common/tusb_fifo.c ****         // TODO should read from hw fifo to discard data, however reading an odd number could
 498:tinyusb/src/common/tusb_fifo.c ****         // accidentally discard data.
 499:tinyusb/src/common/tusb_fifo.c ****       }
ARM GAS  /tmp/cc5fbsfm.s 			page 32


 500:tinyusb/src/common/tusb_fifo.c **** 
 501:tinyusb/src/common/tusb_fifo.c ****       n = f->depth;
 502:tinyusb/src/common/tusb_fifo.c **** 
 503:tinyusb/src/common/tusb_fifo.c ****       // We start writing at the read pointer's position since we fill the whole buffer
 504:tinyusb/src/common/tusb_fifo.c ****       wr_idx = rd_idx;
 505:tinyusb/src/common/tusb_fifo.c ****     }
 506:tinyusb/src/common/tusb_fifo.c ****     else
 507:tinyusb/src/common/tusb_fifo.c ****     {
 508:tinyusb/src/common/tusb_fifo.c ****       uint16_t const overflowable_count = _ff_count(f->depth, wr_idx, rd_idx);
 509:tinyusb/src/common/tusb_fifo.c ****       if (overflowable_count + n >= 2*f->depth)
 510:tinyusb/src/common/tusb_fifo.c ****       {
 511:tinyusb/src/common/tusb_fifo.c ****         // Double overflowed
 512:tinyusb/src/common/tusb_fifo.c ****         // Index is bigger than the allowed range [0,2*depth)
 513:tinyusb/src/common/tusb_fifo.c ****         // re-position write index to have a full fifo after pushed
 514:tinyusb/src/common/tusb_fifo.c ****         wr_idx = advance_index(f->depth, rd_idx, f->depth - n);
 515:tinyusb/src/common/tusb_fifo.c **** 
 516:tinyusb/src/common/tusb_fifo.c ****         // TODO we should also shift out n bytes from read index since we avoid changing rd index !
 517:tinyusb/src/common/tusb_fifo.c ****         // However memmove() is expensive due to actual copying + wrapping consideration.
 518:tinyusb/src/common/tusb_fifo.c ****         // Also race condition could happen anyway if read() is invoke while moving result in corru
 519:tinyusb/src/common/tusb_fifo.c ****         // currently deliberately not implemented --> result in incorrect data read back
 520:tinyusb/src/common/tusb_fifo.c ****       }else
 521:tinyusb/src/common/tusb_fifo.c ****       {
 522:tinyusb/src/common/tusb_fifo.c ****         // normal + single overflowed:
 523:tinyusb/src/common/tusb_fifo.c ****         // Index is in the range of [0,2*depth) and thus detect and recoverable. Recovering is hand
 524:tinyusb/src/common/tusb_fifo.c ****         // Therefore we just increase write index
 525:tinyusb/src/common/tusb_fifo.c ****         // we will correct (re-position) read index later on in fifo_read() function
 526:tinyusb/src/common/tusb_fifo.c ****       }
 527:tinyusb/src/common/tusb_fifo.c ****     }
 528:tinyusb/src/common/tusb_fifo.c ****   }
 529:tinyusb/src/common/tusb_fifo.c **** 
 530:tinyusb/src/common/tusb_fifo.c ****   if (n)
 531:tinyusb/src/common/tusb_fifo.c ****   {
 532:tinyusb/src/common/tusb_fifo.c ****     uint16_t wr_ptr = idx2ptr(f->depth, wr_idx);
 533:tinyusb/src/common/tusb_fifo.c **** 
 534:tinyusb/src/common/tusb_fifo.c ****     TU_LOG(TU_FIFO_DBG, "actual_n = %u, wr_ptr = %u", n, wr_ptr);
 535:tinyusb/src/common/tusb_fifo.c **** 
 536:tinyusb/src/common/tusb_fifo.c ****     // Write data
 537:tinyusb/src/common/tusb_fifo.c ****     _ff_push_n(f, buf8, n, wr_ptr, copy_mode);
 538:tinyusb/src/common/tusb_fifo.c **** 
 539:tinyusb/src/common/tusb_fifo.c ****     // Advance index
 540:tinyusb/src/common/tusb_fifo.c ****     f->wr_idx = advance_index(f->depth, wr_idx, n);
 541:tinyusb/src/common/tusb_fifo.c **** 
 542:tinyusb/src/common/tusb_fifo.c ****     TU_LOG(TU_FIFO_DBG, "\tnew_wr = %u\r\n", f->wr_idx);
 543:tinyusb/src/common/tusb_fifo.c ****   }
 544:tinyusb/src/common/tusb_fifo.c **** 
 545:tinyusb/src/common/tusb_fifo.c ****   _ff_unlock(f->mutex_wr);
 546:tinyusb/src/common/tusb_fifo.c **** 
 547:tinyusb/src/common/tusb_fifo.c ****   return n;
 548:tinyusb/src/common/tusb_fifo.c **** }
 549:tinyusb/src/common/tusb_fifo.c **** 
 550:tinyusb/src/common/tusb_fifo.c **** static uint16_t _tu_fifo_read_n(tu_fifo_t* f, void * buffer, uint16_t n, tu_fifo_copy_mode_t copy_m
 551:tinyusb/src/common/tusb_fifo.c **** {
 823              		.loc 1 551 1 is_stmt 1 view -0
 824              		.cfi_startproc
 825              		@ args = 0, pretend = 0, frame = 0
 826              		@ frame_needed = 0, uses_anonymous_args = 0
 827              		.loc 1 551 1 is_stmt 0 view .LVU246
ARM GAS  /tmp/cc5fbsfm.s 			page 33


 828 0000 30B5     		push	{r4, r5, lr}
 829              	.LCFI12:
 830              		.cfi_def_cfa_offset 12
 831              		.cfi_offset 4, -12
 832              		.cfi_offset 5, -8
 833              		.cfi_offset 14, -4
 834 0002 83B0     		sub	sp, sp, #12
 835              	.LCFI13:
 836              		.cfi_def_cfa_offset 24
 837 0004 0446     		mov	r4, r0
 552:tinyusb/src/common/tusb_fifo.c ****   _ff_lock(f->mutex_rd);
 838              		.loc 1 552 24 is_stmt 1 view .LVU247
 553:tinyusb/src/common/tusb_fifo.c **** 
 554:tinyusb/src/common/tusb_fifo.c ****   // Peek the data
 555:tinyusb/src/common/tusb_fifo.c ****   // f->rd_idx might get modified in case of an overflow so we can not use a local variable
 556:tinyusb/src/common/tusb_fifo.c ****   n = _tu_fifo_peek_n(f, buffer, n, f->wr_idx, f->rd_idx, copy_mode);
 839              		.loc 1 556 3 view .LVU248
 840              		.loc 1 556 7 is_stmt 0 view .LVU249
 841 0006 B0F808C0 		ldrh	ip, [r0, #8]
 842 000a 4589     		ldrh	r5, [r0, #10]
 843 000c ADB2     		uxth	r5, r5
 844 000e 0193     		str	r3, [sp, #4]
 845 0010 0095     		str	r5, [sp]
 846 0012 1FFA8CF3 		uxth	r3, ip
 847              	.LVL108:
 848              		.loc 1 556 7 view .LVU250
 849 0016 FFF7FEFF 		bl	_tu_fifo_peek_n
 850              	.LVL109:
 851              		.loc 1 556 7 view .LVU251
 852 001a 0546     		mov	r5, r0
 853              	.LVL110:
 557:tinyusb/src/common/tusb_fifo.c **** 
 558:tinyusb/src/common/tusb_fifo.c ****   // Advance read pointer
 559:tinyusb/src/common/tusb_fifo.c ****   f->rd_idx = advance_index(f->depth, f->rd_idx, n);
 854              		.loc 1 559 3 is_stmt 1 view .LVU252
 855              		.loc 1 559 15 is_stmt 0 view .LVU253
 856 001c 6189     		ldrh	r1, [r4, #10]
 857 001e 0246     		mov	r2, r0
 858 0020 89B2     		uxth	r1, r1
 859 0022 A088     		ldrh	r0, [r4, #4]
 860              	.LVL111:
 861              		.loc 1 559 15 view .LVU254
 862 0024 FFF7FEFF 		bl	advance_index
 863              	.LVL112:
 864              		.loc 1 559 13 view .LVU255
 865 0028 6081     		strh	r0, [r4, #10]	@ movhi
 560:tinyusb/src/common/tusb_fifo.c **** 
 561:tinyusb/src/common/tusb_fifo.c ****   _ff_unlock(f->mutex_rd);
 866              		.loc 1 561 26 is_stmt 1 view .LVU256
 562:tinyusb/src/common/tusb_fifo.c ****   return n;
 867              		.loc 1 562 3 view .LVU257
 563:tinyusb/src/common/tusb_fifo.c **** }
 868              		.loc 1 563 1 is_stmt 0 view .LVU258
 869 002a 2846     		mov	r0, r5
 870 002c 03B0     		add	sp, sp, #12
 871              	.LCFI14:
 872              		.cfi_def_cfa_offset 12
ARM GAS  /tmp/cc5fbsfm.s 			page 34


 873              		@ sp needed
 874 002e 30BD     		pop	{r4, r5, pc}
 875              		.loc 1 563 1 view .LVU259
 876              		.cfi_endproc
 877              	.LFE73:
 879              		.section	.text._ff_push_const_addr,"ax",%progbits
 880              		.align	1
 881              		.syntax unified
 882              		.thumb
 883              		.thumb_func
 884              		.fpu fpv4-sp-d16
 886              	_ff_push_const_addr:
 887              	.LVL113:
 888              	.LFB59:
  99:tinyusb/src/common/tusb_fifo.c ****   volatile const uint32_t * reg_rx = (volatile const uint32_t *) app_buf;
 889              		.loc 1 99 1 is_stmt 1 view -0
 890              		.cfi_startproc
 891              		@ args = 0, pretend = 0, frame = 8
 892              		@ frame_needed = 0, uses_anonymous_args = 0
  99:tinyusb/src/common/tusb_fifo.c ****   volatile const uint32_t * reg_rx = (volatile const uint32_t *) app_buf;
 893              		.loc 1 99 1 is_stmt 0 view .LVU261
 894 0000 10B5     		push	{r4, lr}
 895              	.LCFI15:
 896              		.cfi_def_cfa_offset 8
 897              		.cfi_offset 4, -8
 898              		.cfi_offset 14, -4
 899 0002 82B0     		sub	sp, sp, #8
 900              	.LCFI16:
 901              		.cfi_def_cfa_offset 16
 100:tinyusb/src/common/tusb_fifo.c **** 
 902              		.loc 1 100 3 is_stmt 1 view .LVU262
 903              	.LVL114:
 103:tinyusb/src/common/tusb_fifo.c ****   while(full_words--)
 904              		.loc 1 103 3 view .LVU263
 103:tinyusb/src/common/tusb_fifo.c ****   while(full_words--)
 905              		.loc 1 103 12 is_stmt 0 view .LVU264
 906 0004 9408     		lsrs	r4, r2, #2
 907              	.LVL115:
 104:tinyusb/src/common/tusb_fifo.c ****   {
 908              		.loc 1 104 3 is_stmt 1 view .LVU265
 104:tinyusb/src/common/tusb_fifo.c ****   {
 909              		.loc 1 104 8 is_stmt 0 view .LVU266
 910 0006 03E0     		b	.L48
 911              	.LVL116:
 912              	.L49:
 106:tinyusb/src/common/tusb_fifo.c ****     ff_buf += 4;
 913              		.loc 1 106 5 is_stmt 1 view .LVU267
 914 0008 0C68     		ldr	r4, [r1]
 915              	.LVL117:
 916              	.LBB124:
 917              	.LBI124:
 265:tinyusb/src/common/tusb_common.h **** }
 266:tinyusb/src/common/tusb_common.h **** 
 267:tinyusb/src/common/tusb_common.h **** TU_ATTR_ALWAYS_INLINE static inline uint16_t tu_unaligned_read16(const void *mem) {
 268:tinyusb/src/common/tusb_common.h ****   return *((uint16_t const *) mem);
 269:tinyusb/src/common/tusb_common.h **** }
 270:tinyusb/src/common/tusb_common.h **** 
ARM GAS  /tmp/cc5fbsfm.s 			page 35


 271:tinyusb/src/common/tusb_common.h **** TU_ATTR_ALWAYS_INLINE static inline void tu_unaligned_write32(void *mem, uint32_t value) {
 918              		.loc 2 271 42 view .LVU268
 919              	.LBB125:
 272:tinyusb/src/common/tusb_common.h ****   *((uint32_t *) mem) = value;
 920              		.loc 2 272 3 view .LVU269
 921              		.loc 2 272 23 is_stmt 0 view .LVU270
 922 000a 40F8044B 		str	r4, [r0], #4
 923              	.LVL118:
 924              		.loc 2 272 23 view .LVU271
 925              	.LBE125:
 926              	.LBE124:
 107:tinyusb/src/common/tusb_fifo.c ****   }
 927              		.loc 1 107 5 is_stmt 1 view .LVU272
 104:tinyusb/src/common/tusb_fifo.c ****   {
 928              		.loc 1 104 19 is_stmt 0 view .LVU273
 929 000e 1C46     		mov	r4, r3
 930              	.LVL119:
 931              	.L48:
 104:tinyusb/src/common/tusb_fifo.c ****   {
 932              		.loc 1 104 8 is_stmt 1 view .LVU274
 104:tinyusb/src/common/tusb_fifo.c ****   {
 933              		.loc 1 104 19 is_stmt 0 view .LVU275
 934 0010 631E     		subs	r3, r4, #1
 935 0012 9BB2     		uxth	r3, r3
 936              	.LVL120:
 104:tinyusb/src/common/tusb_fifo.c ****   {
 937              		.loc 1 104 8 view .LVU276
 938 0014 002C     		cmp	r4, #0
 939 0016 F7D1     		bne	.L49
 111:tinyusb/src/common/tusb_fifo.c ****   if ( bytes_rem )
 940              		.loc 1 111 3 is_stmt 1 view .LVU277
 941              	.LVL121:
 112:tinyusb/src/common/tusb_fifo.c ****   {
 942              		.loc 1 112 3 view .LVU278
 112:tinyusb/src/common/tusb_fifo.c ****   {
 943              		.loc 1 112 6 is_stmt 0 view .LVU279
 944 0018 12F00302 		ands	r2, r2, #3
 945              	.LVL122:
 112:tinyusb/src/common/tusb_fifo.c ****   {
 946              		.loc 1 112 6 view .LVU280
 947 001c 01D1     		bne	.L52
 948              	.LVL123:
 949              	.L47:
 117:tinyusb/src/common/tusb_fifo.c **** 
 950              		.loc 1 117 1 view .LVU281
 951 001e 02B0     		add	sp, sp, #8
 952              	.LCFI17:
 953              		.cfi_remember_state
 954              		.cfi_def_cfa_offset 8
 955              		@ sp needed
 956 0020 10BD     		pop	{r4, pc}
 957              	.LVL124:
 958              	.L52:
 959              	.LCFI18:
 960              		.cfi_restore_state
 961              	.LBB126:
 114:tinyusb/src/common/tusb_fifo.c ****     memcpy(ff_buf, &tmp32, bytes_rem);
ARM GAS  /tmp/cc5fbsfm.s 			page 36


 962              		.loc 1 114 5 is_stmt 1 view .LVU282
 114:tinyusb/src/common/tusb_fifo.c ****     memcpy(ff_buf, &tmp32, bytes_rem);
 963              		.loc 1 114 22 is_stmt 0 view .LVU283
 964 0022 0B68     		ldr	r3, [r1]
 965              	.LVL125:
 114:tinyusb/src/common/tusb_fifo.c ****     memcpy(ff_buf, &tmp32, bytes_rem);
 966              		.loc 1 114 14 view .LVU284
 967 0024 0193     		str	r3, [sp, #4]
 115:tinyusb/src/common/tusb_fifo.c ****   }
 968              		.loc 1 115 5 is_stmt 1 view .LVU285
 969 0026 01A9     		add	r1, sp, #4
 970              	.LVL126:
 115:tinyusb/src/common/tusb_fifo.c ****   }
 971              		.loc 1 115 5 is_stmt 0 view .LVU286
 972 0028 FFF7FEFF 		bl	memcpy
 973              	.LVL127:
 115:tinyusb/src/common/tusb_fifo.c ****   }
 974              		.loc 1 115 5 view .LVU287
 975              	.LBE126:
 117:tinyusb/src/common/tusb_fifo.c **** 
 976              		.loc 1 117 1 view .LVU288
 977 002c F7E7     		b	.L47
 978              		.cfi_endproc
 979              	.LFE59:
 981              		.section	.text._ff_push_n,"ax",%progbits
 982              		.align	1
 983              		.syntax unified
 984              		.thumb
 985              		.thumb_func
 986              		.fpu fpv4-sp-d16
 988              	_ff_push_n:
 989              	.LVL128:
 990              	.LFB62:
 152:tinyusb/src/common/tusb_fifo.c ****   uint16_t const lin_count = f->depth - wr_ptr;
 991              		.loc 1 152 1 is_stmt 1 view -0
 992              		.cfi_startproc
 993              		@ args = 4, pretend = 0, frame = 8
 994              		@ frame_needed = 0, uses_anonymous_args = 0
 152:tinyusb/src/common/tusb_fifo.c ****   uint16_t const lin_count = f->depth - wr_ptr;
 995              		.loc 1 152 1 is_stmt 0 view .LVU290
 996 0000 2DE9F047 		push	{r4, r5, r6, r7, r8, r9, r10, lr}
 997              	.LCFI19:
 998              		.cfi_def_cfa_offset 32
 999              		.cfi_offset 4, -32
 1000              		.cfi_offset 5, -28
 1001              		.cfi_offset 6, -24
 1002              		.cfi_offset 7, -20
 1003              		.cfi_offset 8, -16
 1004              		.cfi_offset 9, -12
 1005              		.cfi_offset 10, -8
 1006              		.cfi_offset 14, -4
 1007 0004 82B0     		sub	sp, sp, #8
 1008              	.LCFI20:
 1009              		.cfi_def_cfa_offset 40
 1010 0006 0646     		mov	r6, r0
 1011 0008 0F46     		mov	r7, r1
 1012 000a 9DF82810 		ldrb	r1, [sp, #40]	@ zero_extendqisi2
ARM GAS  /tmp/cc5fbsfm.s 			page 37


 1013              	.LVL129:
 153:tinyusb/src/common/tusb_fifo.c ****   uint16_t const wrap_count = n - lin_count;
 1014              		.loc 1 153 3 is_stmt 1 view .LVU291
 153:tinyusb/src/common/tusb_fifo.c ****   uint16_t const wrap_count = n - lin_count;
 1015              		.loc 1 153 31 is_stmt 0 view .LVU292
 1016 000e B0F804C0 		ldrh	ip, [r0, #4]
 153:tinyusb/src/common/tusb_fifo.c ****   uint16_t const wrap_count = n - lin_count;
 1017              		.loc 1 153 18 view .LVU293
 1018 0012 ACEB0304 		sub	r4, ip, r3
 1019 0016 1FFA84FE 		uxth	lr, r4
 1020              	.LVL130:
 154:tinyusb/src/common/tusb_fifo.c **** 
 1021              		.loc 1 154 3 is_stmt 1 view .LVU294
 154:tinyusb/src/common/tusb_fifo.c **** 
 1022              		.loc 1 154 18 is_stmt 0 view .LVU295
 1023 001a A3EB0C0C 		sub	ip, r3, ip
 1024 001e 9444     		add	ip, ip, r2
 1025              	.LVL131:
 156:tinyusb/src/common/tusb_fifo.c ****   uint16_t wrap_bytes = wrap_count * f->item_size;
 1026              		.loc 1 156 3 is_stmt 1 view .LVU296
 156:tinyusb/src/common/tusb_fifo.c ****   uint16_t wrap_bytes = wrap_count * f->item_size;
 1027              		.loc 1 156 37 is_stmt 0 view .LVU297
 1028 0020 B0F80690 		ldrh	r9, [r0, #6]
 1029 0024 C9F30E0A 		ubfx	r10, r9, #0, #15
 156:tinyusb/src/common/tusb_fifo.c ****   uint16_t wrap_bytes = wrap_count * f->item_size;
 1030              		.loc 1 156 12 view .LVU298
 1031 0028 14FB0AF4 		smulbb	r4, r4, r10
 1032 002c A4B2     		uxth	r4, r4
 1033              	.LVL132:
 157:tinyusb/src/common/tusb_fifo.c **** 
 1034              		.loc 1 157 3 is_stmt 1 view .LVU299
 157:tinyusb/src/common/tusb_fifo.c **** 
 1035              		.loc 1 157 12 is_stmt 0 view .LVU300
 1036 002e 1CFB0AFC 		smulbb	ip, ip, r10
 1037              	.LVL133:
 157:tinyusb/src/common/tusb_fifo.c **** 
 1038              		.loc 1 157 12 view .LVU301
 1039 0032 1FFA8CF5 		uxth	r5, ip
 1040              	.LVL134:
 160:tinyusb/src/common/tusb_fifo.c **** 
 1041              		.loc 1 160 3 is_stmt 1 view .LVU302
 160:tinyusb/src/common/tusb_fifo.c **** 
 1042              		.loc 1 160 22 is_stmt 0 view .LVU303
 1043 0036 0068     		ldr	r0, [r0]
 1044              	.LVL135:
 160:tinyusb/src/common/tusb_fifo.c **** 
 1045              		.loc 1 160 12 view .LVU304
 1046 0038 0AFB0308 		mla	r8, r10, r3, r0
 1047              	.LVL136:
 162:tinyusb/src/common/tusb_fifo.c ****   {
 1048              		.loc 1 162 3 is_stmt 1 view .LVU305
 1049 003c 21B1     		cbz	r1, .L54
 1050 003e 0129     		cmp	r1, #1
 1051 0040 16D0     		beq	.L55
 1052              	.LVL137:
 1053              	.L53:
 228:tinyusb/src/common/tusb_fifo.c **** 
ARM GAS  /tmp/cc5fbsfm.s 			page 38


 1054              		.loc 1 228 1 is_stmt 0 view .LVU306
 1055 0042 02B0     		add	sp, sp, #8
 1056              	.LCFI21:
 1057              		.cfi_remember_state
 1058              		.cfi_def_cfa_offset 32
 1059              		@ sp needed
 1060 0044 BDE8F087 		pop	{r4, r5, r6, r7, r8, r9, r10, pc}
 1061              	.LVL138:
 1062              	.L54:
 1063              	.LCFI22:
 1064              		.cfi_restore_state
 165:tinyusb/src/common/tusb_fifo.c ****       {
 1065              		.loc 1 165 7 is_stmt 1 view .LVU307
 165:tinyusb/src/common/tusb_fifo.c ****       {
 1066              		.loc 1 165 9 is_stmt 0 view .LVU308
 1067 0048 9645     		cmp	lr, r2
 1068 004a 06D3     		bcc	.L57
 168:tinyusb/src/common/tusb_fifo.c ****       }
 1069              		.loc 1 168 9 is_stmt 1 view .LVU309
 1070 004c 0AFB02F2 		mul	r2, r10, r2
 1071              	.LVL139:
 168:tinyusb/src/common/tusb_fifo.c ****       }
 1072              		.loc 1 168 9 is_stmt 0 view .LVU310
 1073 0050 3946     		mov	r1, r7
 1074 0052 4046     		mov	r0, r8
 1075 0054 FFF7FEFF 		bl	memcpy
 1076              	.LVL140:
 168:tinyusb/src/common/tusb_fifo.c ****       }
 1077              		.loc 1 168 9 view .LVU311
 1078 0058 F3E7     		b	.L53
 1079              	.LVL141:
 1080              	.L57:
 175:tinyusb/src/common/tusb_fifo.c **** 
 1081              		.loc 1 175 9 is_stmt 1 view .LVU312
 1082 005a 2246     		mov	r2, r4
 1083              	.LVL142:
 175:tinyusb/src/common/tusb_fifo.c **** 
 1084              		.loc 1 175 9 is_stmt 0 view .LVU313
 1085 005c 3946     		mov	r1, r7
 1086 005e 4046     		mov	r0, r8
 1087 0060 FFF7FEFF 		bl	memcpy
 1088              	.LVL143:
 179:tinyusb/src/common/tusb_fifo.c ****       }
 1089              		.loc 1 179 9 is_stmt 1 view .LVU314
 1090 0064 2A46     		mov	r2, r5
 1091 0066 3919     		adds	r1, r7, r4
 1092 0068 3068     		ldr	r0, [r6]
 1093 006a FFF7FEFF 		bl	memcpy
 1094              	.LVL144:
 1095 006e E8E7     		b	.L53
 1096              	.LVL145:
 1097              	.L55:
 185:tinyusb/src/common/tusb_fifo.c ****       {
 1098              		.loc 1 185 7 view .LVU315
 185:tinyusb/src/common/tusb_fifo.c ****       {
 1099              		.loc 1 185 9 is_stmt 0 view .LVU316
 1100 0070 9645     		cmp	lr, r2
ARM GAS  /tmp/cc5fbsfm.s 			page 39


 1101 0072 07D3     		bcc	.L58
 188:tinyusb/src/common/tusb_fifo.c ****       }
 1102              		.loc 1 188 9 is_stmt 1 view .LVU317
 1103 0074 1AFB02F2 		smulbb	r2, r10, r2
 1104              	.LVL146:
 188:tinyusb/src/common/tusb_fifo.c ****       }
 1105              		.loc 1 188 9 is_stmt 0 view .LVU318
 1106 0078 92B2     		uxth	r2, r2
 1107 007a 3946     		mov	r1, r7
 1108 007c 4046     		mov	r0, r8
 1109 007e FFF7FEFF 		bl	_ff_push_const_addr
 1110              	.LVL147:
 188:tinyusb/src/common/tusb_fifo.c ****       }
 1111              		.loc 1 188 9 view .LVU319
 1112 0082 DEE7     		b	.L53
 1113              	.LVL148:
 1114              	.L58:
 1115              	.LBB127:
 195:tinyusb/src/common/tusb_fifo.c ****         _ff_push_const_addr(ff_buf, app_buf, nLin_4n_bytes);
 1116              		.loc 1 195 9 is_stmt 1 view .LVU320
 195:tinyusb/src/common/tusb_fifo.c ****         _ff_push_const_addr(ff_buf, app_buf, nLin_4n_bytes);
 1117              		.loc 1 195 18 is_stmt 0 view .LVU321
 1118 0084 24F00309 		bic	r9, r4, #3
 1119 0088 1FFA89F9 		uxth	r9, r9
 1120              	.LVL149:
 196:tinyusb/src/common/tusb_fifo.c ****         ff_buf += nLin_4n_bytes;
 1121              		.loc 1 196 9 is_stmt 1 view .LVU322
 1122 008c 4A46     		mov	r2, r9
 1123              	.LVL150:
 196:tinyusb/src/common/tusb_fifo.c ****         ff_buf += nLin_4n_bytes;
 1124              		.loc 1 196 9 is_stmt 0 view .LVU323
 1125 008e 3946     		mov	r1, r7
 1126 0090 4046     		mov	r0, r8
 1127 0092 FFF7FEFF 		bl	_ff_push_const_addr
 1128              	.LVL151:
 197:tinyusb/src/common/tusb_fifo.c **** 
 1129              		.loc 1 197 9 is_stmt 1 view .LVU324
 197:tinyusb/src/common/tusb_fifo.c **** 
 1130              		.loc 1 197 16 is_stmt 0 view .LVU325
 1131 0096 C844     		add	r8, r8, r9
 1132              	.LVL152:
 200:tinyusb/src/common/tusb_fifo.c ****         if (rem > 0)
 1133              		.loc 1 200 9 is_stmt 1 view .LVU326
 201:tinyusb/src/common/tusb_fifo.c ****         {
 1134              		.loc 1 201 9 view .LVU327
 201:tinyusb/src/common/tusb_fifo.c ****         {
 1135              		.loc 1 201 12 is_stmt 0 view .LVU328
 1136 0098 14F00302 		ands	r2, r4, #3
 1137 009c 29D0     		beq	.L59
 1138              	.LBB128:
 203:tinyusb/src/common/tusb_fifo.c **** 
 1139              		.loc 1 203 11 is_stmt 1 view .LVU329
 1140              	.LVL153:
 205:tinyusb/src/common/tusb_fifo.c ****           wrap_bytes -= remrem;
 1141              		.loc 1 205 11 view .LVU330
 205:tinyusb/src/common/tusb_fifo.c ****           wrap_bytes -= remrem;
 1142              		.loc 1 205 38 is_stmt 0 view .LVU331
ARM GAS  /tmp/cc5fbsfm.s 			page 40


 1143 009e C2F10404 		rsb	r4, r2, #4
 1144              	.LVL154:
 205:tinyusb/src/common/tusb_fifo.c ****           wrap_bytes -= remrem;
 1145              		.loc 1 205 38 view .LVU332
 1146 00a2 A4B2     		uxth	r4, r4
 1147              	.LVL155:
 1148              	.LBB129:
 1149              	.LBI129:
 149:tinyusb/src/common/tusb_common.h **** TU_ATTR_ALWAYS_INLINE static inline uint32_t tu_min32 (uint32_t x, uint32_t y) { return (x < y) ? x
 1150              		.loc 2 149 46 is_stmt 1 view .LVU333
 1151              	.LBB130:
 149:tinyusb/src/common/tusb_common.h **** TU_ATTR_ALWAYS_INLINE static inline uint32_t tu_min32 (uint32_t x, uint32_t y) { return (x < y) ? x
 1152              		.loc 2 149 82 view .LVU334
 149:tinyusb/src/common/tusb_common.h **** TU_ATTR_ALWAYS_INLINE static inline uint32_t tu_min32 (uint32_t x, uint32_t y) { return (x < y) ? x
 1153              		.loc 2 149 101 is_stmt 0 view .LVU335
 1154 00a4 AC42     		cmp	r4, r5
 1155 00a6 28BF     		it	cs
 1156 00a8 2C46     		movcs	r4, r5
 1157              	.LVL156:
 149:tinyusb/src/common/tusb_common.h **** TU_ATTR_ALWAYS_INLINE static inline uint32_t tu_min32 (uint32_t x, uint32_t y) { return (x < y) ? x
 1158              		.loc 2 149 101 view .LVU336
 1159              	.LBE130:
 1160              	.LBE129:
 205:tinyusb/src/common/tusb_fifo.c ****           wrap_bytes -= remrem;
 1161              		.loc 1 205 19 view .LVU337
 1162 00aa E4B2     		uxtb	r4, r4
 1163              	.LVL157:
 206:tinyusb/src/common/tusb_fifo.c **** 
 1164              		.loc 1 206 11 is_stmt 1 view .LVU338
 206:tinyusb/src/common/tusb_fifo.c **** 
 1165              		.loc 1 206 22 is_stmt 0 view .LVU339
 1166 00ac A5EB040C 		sub	ip, r5, r4
 1167 00b0 1FFA8CF5 		uxth	r5, ip
 1168              	.LVL158:
 208:tinyusb/src/common/tusb_fifo.c ****           uint8_t * src_u8 = ((uint8_t *) &tmp32);
 1169              		.loc 1 208 11 is_stmt 1 view .LVU340
 208:tinyusb/src/common/tusb_fifo.c ****           uint8_t * src_u8 = ((uint8_t *) &tmp32);
 1170              		.loc 1 208 28 is_stmt 0 view .LVU341
 1171 00b4 3B68     		ldr	r3, [r7]
 208:tinyusb/src/common/tusb_fifo.c ****           uint8_t * src_u8 = ((uint8_t *) &tmp32);
 1172              		.loc 1 208 20 view .LVU342
 1173 00b6 0193     		str	r3, [sp, #4]
 209:tinyusb/src/common/tusb_fifo.c **** 
 1174              		.loc 1 209 11 is_stmt 1 view .LVU343
 1175              	.LVL159:
 212:tinyusb/src/common/tusb_fifo.c **** 
 1176              		.loc 1 212 11 view .LVU344
 209:tinyusb/src/common/tusb_fifo.c **** 
 1177              		.loc 1 209 21 is_stmt 0 view .LVU345
 1178 00b8 01AB     		add	r3, sp, #4
 1179              	.LVL160:
 212:tinyusb/src/common/tusb_fifo.c **** 
 1180              		.loc 1 212 16 view .LVU346
 1181 00ba 04E0     		b	.L60
 1182              	.LVL161:
 1183              	.L61:
 212:tinyusb/src/common/tusb_fifo.c **** 
ARM GAS  /tmp/cc5fbsfm.s 			page 41


 1184              		.loc 1 212 24 is_stmt 1 discriminator 2 view .LVU347
 212:tinyusb/src/common/tusb_fifo.c **** 
 1185              		.loc 1 212 36 is_stmt 0 discriminator 2 view .LVU348
 1186 00bc 13F8012B 		ldrb	r2, [r3], #1	@ zero_extendqisi2
 1187              	.LVL162:
 212:tinyusb/src/common/tusb_fifo.c **** 
 1188              		.loc 1 212 34 discriminator 2 view .LVU349
 1189 00c0 08F8012B 		strb	r2, [r8], #1
 1190              	.LVL163:
 212:tinyusb/src/common/tusb_fifo.c **** 
 1191              		.loc 1 212 20 discriminator 2 view .LVU350
 1192 00c4 0A46     		mov	r2, r1
 1193              	.LVL164:
 1194              	.L60:
 212:tinyusb/src/common/tusb_fifo.c **** 
 1195              		.loc 1 212 16 is_stmt 1 discriminator 1 view .LVU351
 212:tinyusb/src/common/tusb_fifo.c **** 
 1196              		.loc 1 212 20 is_stmt 0 discriminator 1 view .LVU352
 1197 00c6 511E     		subs	r1, r2, #1
 1198 00c8 C9B2     		uxtb	r1, r1
 1199              	.LVL165:
 212:tinyusb/src/common/tusb_fifo.c **** 
 1200              		.loc 1 212 16 discriminator 1 view .LVU353
 1201 00ca 002A     		cmp	r2, #0
 1202 00cc F6D1     		bne	.L61
 215:tinyusb/src/common/tusb_fifo.c ****           while(remrem--) *ff_buf++ = *src_u8++;
 1203              		.loc 1 215 11 is_stmt 1 view .LVU354
 215:tinyusb/src/common/tusb_fifo.c ****           while(remrem--) *ff_buf++ = *src_u8++;
 1204              		.loc 1 215 18 is_stmt 0 view .LVU355
 1205 00ce 3068     		ldr	r0, [r6]
 1206              	.LVL166:
 216:tinyusb/src/common/tusb_fifo.c ****         }
 1207              		.loc 1 216 11 is_stmt 1 view .LVU356
 216:tinyusb/src/common/tusb_fifo.c ****         }
 1208              		.loc 1 216 16 is_stmt 0 view .LVU357
 1209 00d0 04E0     		b	.L62
 1210              	.LVL167:
 1211              	.L63:
 216:tinyusb/src/common/tusb_fifo.c ****         }
 1212              		.loc 1 216 27 is_stmt 1 discriminator 2 view .LVU358
 216:tinyusb/src/common/tusb_fifo.c ****         }
 1213              		.loc 1 216 39 is_stmt 0 discriminator 2 view .LVU359
 1214 00d2 13F8011B 		ldrb	r1, [r3], #1	@ zero_extendqisi2
 1215              	.LVL168:
 216:tinyusb/src/common/tusb_fifo.c ****         }
 1216              		.loc 1 216 37 discriminator 2 view .LVU360
 1217 00d6 00F8011B 		strb	r1, [r0], #1
 1218              	.LVL169:
 216:tinyusb/src/common/tusb_fifo.c ****         }
 1219              		.loc 1 216 23 discriminator 2 view .LVU361
 1220 00da 1446     		mov	r4, r2
 1221              	.LVL170:
 1222              	.L62:
 216:tinyusb/src/common/tusb_fifo.c ****         }
 1223              		.loc 1 216 16 is_stmt 1 discriminator 1 view .LVU362
 216:tinyusb/src/common/tusb_fifo.c ****         }
 1224              		.loc 1 216 23 is_stmt 0 discriminator 1 view .LVU363
ARM GAS  /tmp/cc5fbsfm.s 			page 42


 1225 00dc 621E     		subs	r2, r4, #1
 1226 00de D2B2     		uxtb	r2, r2
 1227              	.LVL171:
 216:tinyusb/src/common/tusb_fifo.c ****         }
 1228              		.loc 1 216 16 discriminator 1 view .LVU364
 1229 00e0 002C     		cmp	r4, #0
 1230 00e2 F6D1     		bne	.L63
 1231              	.LVL172:
 1232              	.L64:
 216:tinyusb/src/common/tusb_fifo.c ****         }
 1233              		.loc 1 216 16 discriminator 1 view .LVU365
 1234              	.LBE128:
 224:tinyusb/src/common/tusb_fifo.c ****       }
 1235              		.loc 1 224 9 is_stmt 1 view .LVU366
 224:tinyusb/src/common/tusb_fifo.c ****       }
 1236              		.loc 1 224 12 is_stmt 0 view .LVU367
 1237 00e4 002D     		cmp	r5, #0
 1238 00e6 ACD0     		beq	.L53
 224:tinyusb/src/common/tusb_fifo.c ****       }
 1239              		.loc 1 224 29 is_stmt 1 discriminator 1 view .LVU368
 1240 00e8 2A46     		mov	r2, r5
 1241 00ea 3946     		mov	r1, r7
 1242 00ec FFF7FEFF 		bl	_ff_push_const_addr
 1243              	.LVL173:
 224:tinyusb/src/common/tusb_fifo.c ****       }
 1244              		.loc 1 224 29 is_stmt 0 discriminator 1 view .LVU369
 1245              	.LBE127:
 228:tinyusb/src/common/tusb_fifo.c **** 
 1246              		.loc 1 228 1 discriminator 1 view .LVU370
 1247 00f0 A7E7     		b	.L53
 1248              	.LVL174:
 1249              	.L59:
 1250              	.LBB131:
 220:tinyusb/src/common/tusb_fifo.c ****         }
 1251              		.loc 1 220 11 is_stmt 1 view .LVU371
 220:tinyusb/src/common/tusb_fifo.c ****         }
 1252              		.loc 1 220 18 is_stmt 0 view .LVU372
 1253 00f2 3068     		ldr	r0, [r6]
 1254              	.LVL175:
 220:tinyusb/src/common/tusb_fifo.c ****         }
 1255              		.loc 1 220 18 view .LVU373
 1256 00f4 F6E7     		b	.L64
 1257              	.LBE131:
 1258              		.cfi_endproc
 1259              	.LFE62:
 1261              		.section	.text._tu_fifo_write_n,"ax",%progbits
 1262              		.align	1
 1263              		.syntax unified
 1264              		.thumb
 1265              		.thumb_func
 1266              		.fpu fpv4-sp-d16
 1268              	_tu_fifo_write_n:
 1269              	.LVL176:
 1270              	.LFB72:
 464:tinyusb/src/common/tusb_fifo.c ****   if ( n == 0 ) return 0;
 1271              		.loc 1 464 1 is_stmt 1 view -0
 1272              		.cfi_startproc
ARM GAS  /tmp/cc5fbsfm.s 			page 43


 1273              		@ args = 0, pretend = 0, frame = 0
 1274              		@ frame_needed = 0, uses_anonymous_args = 0
 464:tinyusb/src/common/tusb_fifo.c ****   if ( n == 0 ) return 0;
 1275              		.loc 1 464 1 is_stmt 0 view .LVU375
 1276 0000 2DE9F043 		push	{r4, r5, r6, r7, r8, r9, lr}
 1277              	.LCFI23:
 1278              		.cfi_def_cfa_offset 28
 1279              		.cfi_offset 4, -28
 1280              		.cfi_offset 5, -24
 1281              		.cfi_offset 6, -20
 1282              		.cfi_offset 7, -16
 1283              		.cfi_offset 8, -12
 1284              		.cfi_offset 9, -8
 1285              		.cfi_offset 14, -4
 1286 0004 83B0     		sub	sp, sp, #12
 1287              	.LCFI24:
 1288              		.cfi_def_cfa_offset 40
 465:tinyusb/src/common/tusb_fifo.c **** 
 1289              		.loc 1 465 3 is_stmt 1 view .LVU376
 465:tinyusb/src/common/tusb_fifo.c **** 
 1290              		.loc 1 465 6 is_stmt 0 view .LVU377
 1291 0006 9146     		mov	r9, r2
 1292 0008 002A     		cmp	r2, #0
 1293 000a 5BD0     		beq	.L78
 1294 000c 0446     		mov	r4, r0
 1295 000e 8846     		mov	r8, r1
 1296 0010 1F46     		mov	r7, r3
 467:tinyusb/src/common/tusb_fifo.c **** 
 1297              		.loc 1 467 24 is_stmt 1 view .LVU378
 469:tinyusb/src/common/tusb_fifo.c ****   uint16_t rd_idx = f->rd_idx;
 1298              		.loc 1 469 3 view .LVU379
 469:tinyusb/src/common/tusb_fifo.c ****   uint16_t rd_idx = f->rd_idx;
 1299              		.loc 1 469 12 is_stmt 0 view .LVU380
 1300 0012 0689     		ldrh	r6, [r0, #8]
 1301 0014 B6B2     		uxth	r6, r6
 1302              	.LVL177:
 470:tinyusb/src/common/tusb_fifo.c **** 
 1303              		.loc 1 470 3 is_stmt 1 view .LVU381
 470:tinyusb/src/common/tusb_fifo.c **** 
 1304              		.loc 1 470 12 is_stmt 0 view .LVU382
 1305 0016 4189     		ldrh	r1, [r0, #10]
 1306              	.LVL178:
 470:tinyusb/src/common/tusb_fifo.c **** 
 1307              		.loc 1 470 12 view .LVU383
 1308 0018 89B2     		uxth	r1, r1
 1309              	.LVL179:
 472:tinyusb/src/common/tusb_fifo.c **** 
 1310              		.loc 1 472 3 is_stmt 1 view .LVU384
 475:tinyusb/src/common/tusb_fifo.c **** 
 1311              		.loc 1 475 120 view .LVU385
 477:tinyusb/src/common/tusb_fifo.c ****   {
 1312              		.loc 1 477 3 view .LVU386
 477:tinyusb/src/common/tusb_fifo.c ****   {
 1313              		.loc 1 477 10 is_stmt 0 view .LVU387
 1314 001a C379     		ldrb	r3, [r0, #7]	@ zero_extendqisi2
 1315              	.LVL180:
 477:tinyusb/src/common/tusb_fifo.c ****   {
ARM GAS  /tmp/cc5fbsfm.s 			page 44


 1316              		.loc 1 477 6 view .LVU388
 1317 001c DB09     		lsrs	r3, r3, #7
 1318 001e 18D1     		bne	.L68
 1319              	.LBB132:
 480:tinyusb/src/common/tusb_fifo.c ****     n = tu_min16(n, remain);
 1320              		.loc 1 480 5 is_stmt 1 view .LVU389
 480:tinyusb/src/common/tusb_fifo.c ****     n = tu_min16(n, remain);
 1321              		.loc 1 480 29 is_stmt 0 view .LVU390
 1322 0020 8388     		ldrh	r3, [r0, #4]
 1323              	.LVL181:
 1324              	.LBB133:
 1325              	.LBI133:
 338:tinyusb/src/common/tusb_fifo.c **** {
 1326              		.loc 1 338 10 is_stmt 1 view .LVU391
 1327              	.LBB134:
 340:tinyusb/src/common/tusb_fifo.c ****   return (depth > count) ? (depth - count) : 0;
 1328              		.loc 1 340 3 view .LVU392
 1329              	.LBB135:
 1330              	.LBI135:
 324:tinyusb/src/common/tusb_fifo.c **** {
 1331              		.loc 1 324 10 view .LVU393
 1332              	.LBB136:
 327:tinyusb/src/common/tusb_fifo.c ****   {
 1333              		.loc 1 327 3 view .LVU394
 327:tinyusb/src/common/tusb_fifo.c ****   {
 1334              		.loc 1 327 6 is_stmt 0 view .LVU395
 1335 0022 8E42     		cmp	r6, r1
 1336 0024 0DD3     		bcc	.L69
 329:tinyusb/src/common/tusb_fifo.c ****   } else
 1337              		.loc 1 329 5 is_stmt 1 view .LVU396
 329:tinyusb/src/common/tusb_fifo.c ****   } else
 1338              		.loc 1 329 12 is_stmt 0 view .LVU397
 1339 0026 751A     		subs	r5, r6, r1
 1340 0028 ADB2     		uxth	r5, r5
 1341              	.LVL182:
 1342              	.L70:
 329:tinyusb/src/common/tusb_fifo.c ****   } else
 1343              		.loc 1 329 12 view .LVU398
 1344              	.LBE136:
 1345              	.LBE135:
 341:tinyusb/src/common/tusb_fifo.c **** }
 1346              		.loc 1 341 3 is_stmt 1 view .LVU399
 341:tinyusb/src/common/tusb_fifo.c **** }
 1347              		.loc 1 341 44 is_stmt 0 view .LVU400
 1348 002a AB42     		cmp	r3, r5
 1349 002c 0FD9     		bls	.L79
 1350 002e 5D1B     		subs	r5, r3, r5
 1351              	.LVL183:
 341:tinyusb/src/common/tusb_fifo.c **** }
 1352              		.loc 1 341 44 view .LVU401
 1353 0030 ADB2     		uxth	r5, r5
 1354              	.L71:
 1355              	.LVL184:
 341:tinyusb/src/common/tusb_fifo.c **** }
 1356              		.loc 1 341 44 view .LVU402
 1357              	.LBE134:
 1358              	.LBE133:
ARM GAS  /tmp/cc5fbsfm.s 			page 45


 481:tinyusb/src/common/tusb_fifo.c ****   }
 1359              		.loc 1 481 5 is_stmt 1 view .LVU403
 1360              	.LBB140:
 1361              	.LBI140:
 149:tinyusb/src/common/tusb_common.h **** TU_ATTR_ALWAYS_INLINE static inline uint32_t tu_min32 (uint32_t x, uint32_t y) { return (x < y) ? x
 1362              		.loc 2 149 46 view .LVU404
 1363              	.LBB141:
 149:tinyusb/src/common/tusb_common.h **** TU_ATTR_ALWAYS_INLINE static inline uint32_t tu_min32 (uint32_t x, uint32_t y) { return (x < y) ? x
 1364              		.loc 2 149 82 view .LVU405
 149:tinyusb/src/common/tusb_common.h **** TU_ATTR_ALWAYS_INLINE static inline uint32_t tu_min32 (uint32_t x, uint32_t y) { return (x < y) ? x
 1365              		.loc 2 149 101 is_stmt 0 view .LVU406
 1366 0032 4D45     		cmp	r5, r9
 1367 0034 28BF     		it	cs
 1368 0036 4D46     		movcs	r5, r9
 1369              	.LVL185:
 1370              	.L72:
 149:tinyusb/src/common/tusb_common.h **** TU_ATTR_ALWAYS_INLINE static inline uint32_t tu_min32 (uint32_t x, uint32_t y) { return (x < y) ? x
 1371              		.loc 2 149 101 view .LVU407
 1372              	.LBE141:
 1373              	.LBE140:
 1374              	.LBE132:
 1375              	.LBB143:
 526:tinyusb/src/common/tusb_fifo.c ****     }
 1376              		.loc 1 526 7 is_stmt 1 view .LVU408
 1377              	.LBE143:
 530:tinyusb/src/common/tusb_fifo.c ****   {
 1378              		.loc 1 530 3 view .LVU409
 530:tinyusb/src/common/tusb_fifo.c ****   {
 1379              		.loc 1 530 6 is_stmt 0 view .LVU410
 1380 0038 002D     		cmp	r5, #0
 1381 003a 44D0     		beq	.L67
 1382              	.LBB148:
 532:tinyusb/src/common/tusb_fifo.c **** 
 1383              		.loc 1 532 5 is_stmt 1 view .LVU411
 532:tinyusb/src/common/tusb_fifo.c **** 
 1384              		.loc 1 532 23 is_stmt 0 view .LVU412
 1385 003c A288     		ldrh	r2, [r4, #4]
 1386              	.LVL186:
 1387              	.LBB149:
 1388              	.LBI149:
 385:tinyusb/src/common/tusb_fifo.c **** {
 1389              		.loc 1 385 10 is_stmt 1 view .LVU413
 1390              	.LBB150:
 388:tinyusb/src/common/tusb_fifo.c ****   return idx;
 1391              		.loc 1 388 3 view .LVU414
 388:tinyusb/src/common/tusb_fifo.c ****   return idx;
 1392              		.loc 1 388 9 is_stmt 0 view .LVU415
 1393 003e 3346     		mov	r3, r6
 1394 0040 31E0     		b	.L76
 1395              	.LVL187:
 1396              	.L69:
 388:tinyusb/src/common/tusb_fifo.c ****   return idx;
 1397              		.loc 1 388 9 view .LVU416
 1398              	.LBE150:
 1399              	.LBE149:
 1400              	.LBE148:
 1401              	.LBB153:
ARM GAS  /tmp/cc5fbsfm.s 			page 46


 1402              	.LBB142:
 1403              	.LBB139:
 1404              	.LBB138:
 1405              	.LBB137:
 332:tinyusb/src/common/tusb_fifo.c ****   }
 1406              		.loc 1 332 5 is_stmt 1 view .LVU417
 332:tinyusb/src/common/tusb_fifo.c ****   }
 1407              		.loc 1 332 32 is_stmt 0 view .LVU418
 1408 0042 751A     		subs	r5, r6, r1
 332:tinyusb/src/common/tusb_fifo.c ****   }
 1409              		.loc 1 332 12 view .LVU419
 1410 0044 5900     		lsls	r1, r3, #1
 1411              	.LVL188:
 332:tinyusb/src/common/tusb_fifo.c ****   }
 1412              		.loc 1 332 12 view .LVU420
 1413 0046 11FA85F5 		uxtah	r5, r1, r5
 1414 004a ADB2     		uxth	r5, r5
 1415 004c EDE7     		b	.L70
 1416              	.LVL189:
 1417              	.L79:
 332:tinyusb/src/common/tusb_fifo.c ****   }
 1418              		.loc 1 332 12 view .LVU421
 1419              	.LBE137:
 1420              	.LBE138:
 341:tinyusb/src/common/tusb_fifo.c **** }
 1421              		.loc 1 341 44 view .LVU422
 1422 004e 0025     		movs	r5, #0
 1423              	.LVL190:
 341:tinyusb/src/common/tusb_fifo.c **** }
 1424              		.loc 1 341 44 view .LVU423
 1425 0050 EFE7     		b	.L71
 1426              	.LVL191:
 1427              	.L68:
 341:tinyusb/src/common/tusb_fifo.c **** }
 1428              		.loc 1 341 44 view .LVU424
 1429              	.LBE139:
 1430              	.LBE142:
 1431              	.LBE153:
 489:tinyusb/src/common/tusb_fifo.c ****     {
 1432              		.loc 1 489 5 is_stmt 1 view .LVU425
 489:tinyusb/src/common/tusb_fifo.c ****     {
 1433              		.loc 1 489 16 is_stmt 0 view .LVU426
 1434 0052 8588     		ldrh	r5, [r0, #4]
 489:tinyusb/src/common/tusb_fifo.c ****     {
 1435              		.loc 1 489 8 view .LVU427
 1436 0054 9542     		cmp	r5, r2
 1437 0056 09D8     		bhi	.L73
 492:tinyusb/src/common/tusb_fifo.c ****       {
 1438              		.loc 1 492 7 is_stmt 1 view .LVU428
 492:tinyusb/src/common/tusb_fifo.c ****       {
 1439              		.loc 1 492 10 is_stmt 0 view .LVU429
 1440 0058 FFB9     		cbnz	r7, .L80
 494:tinyusb/src/common/tusb_fifo.c ****       }else
 1441              		.loc 1 494 9 is_stmt 1 view .LVU430
 494:tinyusb/src/common/tusb_fifo.c ****       }else
 1442              		.loc 1 494 20 is_stmt 0 view .LVU431
 1443 005a A2EB0509 		sub	r9, r2, r5
ARM GAS  /tmp/cc5fbsfm.s 			page 47


 494:tinyusb/src/common/tusb_fifo.c ****       }else
 1444              		.loc 1 494 35 view .LVU432
 1445 005e C388     		ldrh	r3, [r0, #6]
 1446 0060 C3F30E03 		ubfx	r3, r3, #0, #15
 494:tinyusb/src/common/tusb_fifo.c ****       }else
 1447              		.loc 1 494 14 view .LVU433
 1448 0064 03FB0988 		mla	r8, r3, r9, r8
 1449              	.LVL192:
 504:tinyusb/src/common/tusb_fifo.c ****     }
 1450              		.loc 1 504 14 view .LVU434
 1451 0068 0E46     		mov	r6, r1
 1452              	.LVL193:
 504:tinyusb/src/common/tusb_fifo.c ****     }
 1453              		.loc 1 504 14 view .LVU435
 1454 006a E5E7     		b	.L72
 1455              	.LVL194:
 1456              	.L73:
 1457              	.LBB154:
 508:tinyusb/src/common/tusb_fifo.c ****       if (overflowable_count + n >= 2*f->depth)
 1458              		.loc 1 508 7 is_stmt 1 view .LVU436
 1459              	.LBB144:
 1460              	.LBI144:
 324:tinyusb/src/common/tusb_fifo.c **** {
 1461              		.loc 1 324 10 view .LVU437
 1462              	.LBB145:
 327:tinyusb/src/common/tusb_fifo.c ****   {
 1463              		.loc 1 327 3 view .LVU438
 327:tinyusb/src/common/tusb_fifo.c ****   {
 1464              		.loc 1 327 6 is_stmt 0 view .LVU439
 1465 006c 8E42     		cmp	r6, r1
 1466 006e 0ED3     		bcc	.L74
 329:tinyusb/src/common/tusb_fifo.c ****   } else
 1467              		.loc 1 329 5 is_stmt 1 view .LVU440
 329:tinyusb/src/common/tusb_fifo.c ****   } else
 1468              		.loc 1 329 12 is_stmt 0 view .LVU441
 1469 0070 731A     		subs	r3, r6, r1
 1470 0072 9BB2     		uxth	r3, r3
 1471              	.LVL195:
 1472              	.L75:
 329:tinyusb/src/common/tusb_fifo.c ****   } else
 1473              		.loc 1 329 12 view .LVU442
 1474              	.LBE145:
 1475              	.LBE144:
 509:tinyusb/src/common/tusb_fifo.c ****       {
 1476              		.loc 1 509 7 is_stmt 1 view .LVU443
 509:tinyusb/src/common/tusb_fifo.c ****       {
 1477              		.loc 1 509 30 is_stmt 0 view .LVU444
 1478 0074 4B44     		add	r3, r3, r9
 1479              	.LVL196:
 509:tinyusb/src/common/tusb_fifo.c ****       {
 1480              		.loc 1 509 10 view .LVU445
 1481 0076 B3EB450F 		cmp	r3, r5, lsl #1
 1482 007a 10DB     		blt	.L81
 514:tinyusb/src/common/tusb_fifo.c **** 
 1483              		.loc 1 514 9 is_stmt 1 view .LVU446
 514:tinyusb/src/common/tusb_fifo.c **** 
 1484              		.loc 1 514 18 is_stmt 0 view .LVU447
ARM GAS  /tmp/cc5fbsfm.s 			page 48


 1485 007c A5EB0902 		sub	r2, r5, r9
 1486 0080 92B2     		uxth	r2, r2
 1487 0082 2846     		mov	r0, r5
 1488              	.LVL197:
 514:tinyusb/src/common/tusb_fifo.c **** 
 1489              		.loc 1 514 18 view .LVU448
 1490 0084 FFF7FEFF 		bl	advance_index
 1491              	.LVL198:
 514:tinyusb/src/common/tusb_fifo.c **** 
 1492              		.loc 1 514 18 view .LVU449
 1493 0088 0646     		mov	r6, r0
 1494              	.LVL199:
 514:tinyusb/src/common/tusb_fifo.c **** 
 1495              		.loc 1 514 18 view .LVU450
 1496 008a 4D46     		mov	r5, r9
 1497 008c D4E7     		b	.L72
 1498              	.LVL200:
 1499              	.L74:
 1500              	.LBB147:
 1501              	.LBB146:
 332:tinyusb/src/common/tusb_fifo.c ****   }
 1502              		.loc 1 332 5 is_stmt 1 view .LVU451
 332:tinyusb/src/common/tusb_fifo.c ****   }
 1503              		.loc 1 332 32 is_stmt 0 view .LVU452
 1504 008e 731A     		subs	r3, r6, r1
 332:tinyusb/src/common/tusb_fifo.c ****   }
 1505              		.loc 1 332 12 view .LVU453
 1506 0090 6A00     		lsls	r2, r5, #1
 1507              	.LVL201:
 332:tinyusb/src/common/tusb_fifo.c ****   }
 1508              		.loc 1 332 12 view .LVU454
 1509 0092 12FA83F3 		uxtah	r3, r2, r3
 1510 0096 9BB2     		uxth	r3, r3
 1511 0098 ECE7     		b	.L75
 1512              	.LVL202:
 1513              	.L80:
 332:tinyusb/src/common/tusb_fifo.c ****   }
 1514              		.loc 1 332 12 view .LVU455
 1515              	.LBE146:
 1516              	.LBE147:
 1517              	.LBE154:
 504:tinyusb/src/common/tusb_fifo.c ****     }
 1518              		.loc 1 504 14 view .LVU456
 1519 009a 0E46     		mov	r6, r1
 1520              	.LVL203:
 504:tinyusb/src/common/tusb_fifo.c ****     }
 1521              		.loc 1 504 14 view .LVU457
 1522 009c CCE7     		b	.L72
 1523              	.LVL204:
 1524              	.L81:
 1525              	.LBB155:
 504:tinyusb/src/common/tusb_fifo.c ****     }
 1526              		.loc 1 504 14 view .LVU458
 1527 009e 4D46     		mov	r5, r9
 1528 00a0 CAE7     		b	.L72
 1529              	.LVL205:
 1530              	.L77:
ARM GAS  /tmp/cc5fbsfm.s 			page 49


 504:tinyusb/src/common/tusb_fifo.c ****     }
 1531              		.loc 1 504 14 view .LVU459
 1532              	.LBE155:
 1533              	.LBB156:
 1534              	.LBB152:
 1535              	.LBB151:
 388:tinyusb/src/common/tusb_fifo.c ****   return idx;
 1536              		.loc 1 388 26 is_stmt 1 view .LVU460
 388:tinyusb/src/common/tusb_fifo.c ****   return idx;
 1537              		.loc 1 388 30 is_stmt 0 view .LVU461
 1538 00a2 9B1A     		subs	r3, r3, r2
 1539              	.LVL206:
 388:tinyusb/src/common/tusb_fifo.c ****   return idx;
 1540              		.loc 1 388 30 view .LVU462
 1541 00a4 9BB2     		uxth	r3, r3
 1542              	.LVL207:
 1543              	.L76:
 388:tinyusb/src/common/tusb_fifo.c ****   return idx;
 1544              		.loc 1 388 9 is_stmt 1 view .LVU463
 1545 00a6 9A42     		cmp	r2, r3
 1546 00a8 FBD9     		bls	.L77
 389:tinyusb/src/common/tusb_fifo.c **** }
 1547              		.loc 1 389 3 view .LVU464
 1548              	.LVL208:
 389:tinyusb/src/common/tusb_fifo.c **** }
 1549              		.loc 1 389 3 is_stmt 0 view .LVU465
 1550              	.LBE151:
 1551              	.LBE152:
 534:tinyusb/src/common/tusb_fifo.c **** 
 1552              		.loc 1 534 65 is_stmt 1 view .LVU466
 537:tinyusb/src/common/tusb_fifo.c **** 
 1553              		.loc 1 537 5 view .LVU467
 1554 00aa 0097     		str	r7, [sp]
 1555 00ac 2A46     		mov	r2, r5
 1556 00ae 4146     		mov	r1, r8
 1557 00b0 2046     		mov	r0, r4
 1558 00b2 FFF7FEFF 		bl	_ff_push_n
 1559              	.LVL209:
 540:tinyusb/src/common/tusb_fifo.c **** 
 1560              		.loc 1 540 5 view .LVU468
 540:tinyusb/src/common/tusb_fifo.c **** 
 1561              		.loc 1 540 17 is_stmt 0 view .LVU469
 1562 00b6 2A46     		mov	r2, r5
 1563 00b8 3146     		mov	r1, r6
 1564 00ba A088     		ldrh	r0, [r4, #4]
 1565 00bc FFF7FEFF 		bl	advance_index
 1566              	.LVL210:
 540:tinyusb/src/common/tusb_fifo.c **** 
 1567              		.loc 1 540 15 view .LVU470
 1568 00c0 2081     		strh	r0, [r4, #8]	@ movhi
 1569 00c2 00E0     		b	.L67
 1570              	.LVL211:
 1571              	.L78:
 540:tinyusb/src/common/tusb_fifo.c **** 
 1572              		.loc 1 540 15 view .LVU471
 1573              	.LBE156:
 465:tinyusb/src/common/tusb_fifo.c **** 
ARM GAS  /tmp/cc5fbsfm.s 			page 50


 1574              		.loc 1 465 24 view .LVU472
 1575 00c4 1546     		mov	r5, r2
 1576              	.LVL212:
 1577              	.L67:
 548:tinyusb/src/common/tusb_fifo.c **** 
 1578              		.loc 1 548 1 view .LVU473
 1579 00c6 2846     		mov	r0, r5
 1580 00c8 03B0     		add	sp, sp, #12
 1581              	.LCFI25:
 1582              		.cfi_def_cfa_offset 28
 1583              		@ sp needed
 1584 00ca BDE8F083 		pop	{r4, r5, r6, r7, r8, r9, pc}
 1585              		.cfi_endproc
 1586              	.LFE72:
 1588              		.section	.text.tu_fifo_config,"ax",%progbits
 1589              		.align	1
 1590              		.global	tu_fifo_config
 1591              		.syntax unified
 1592              		.thumb
 1593              		.thumb_func
 1594              		.fpu fpv4-sp-d16
 1596              	tu_fifo_config:
 1597              	.LVL213:
 1598              	.LFB58:
  69:tinyusb/src/common/tusb_fifo.c ****   // Limit index space to 2*depth - this allows for a fast "modulo" calculation
 1599              		.loc 1 69 1 is_stmt 1 view -0
 1600              		.cfi_startproc
 1601              		@ args = 4, pretend = 0, frame = 0
 1602              		@ frame_needed = 0, uses_anonymous_args = 0
 1603              		@ link register save eliminated.
  73:tinyusb/src/common/tusb_fifo.c **** 
 1604              		.loc 1 73 3 view .LVU475
  73:tinyusb/src/common/tusb_fifo.c **** 
 1605              		.loc 1 73 6 is_stmt 0 view .LVU476
 1606 0000 B2F5004F 		cmp	r2, #32768
 1607 0004 10D8     		bhi	.L85
  75:tinyusb/src/common/tusb_fifo.c ****   _ff_lock(f->mutex_rd);
 1608              		.loc 1 75 24 is_stmt 1 view .LVU477
  76:tinyusb/src/common/tusb_fifo.c **** 
 1609              		.loc 1 76 24 view .LVU478
  78:tinyusb/src/common/tusb_fifo.c ****   f->depth        = depth;
 1610              		.loc 1 78 3 view .LVU479
  78:tinyusb/src/common/tusb_fifo.c ****   f->depth        = depth;
 1611              		.loc 1 78 19 is_stmt 0 view .LVU480
 1612 0006 0160     		str	r1, [r0]
  79:tinyusb/src/common/tusb_fifo.c ****   f->item_size    = (uint16_t) (item_size & 0x7FFF);
 1613              		.loc 1 79 3 is_stmt 1 view .LVU481
  79:tinyusb/src/common/tusb_fifo.c ****   f->item_size    = (uint16_t) (item_size & 0x7FFF);
 1614              		.loc 1 79 19 is_stmt 0 view .LVU482
 1615 0008 8280     		strh	r2, [r0, #4]	@ movhi
  80:tinyusb/src/common/tusb_fifo.c ****   f->overwritable = overwritable;
 1616              		.loc 1 80 3 is_stmt 1 view .LVU483
  80:tinyusb/src/common/tusb_fifo.c ****   f->overwritable = overwritable;
 1617              		.loc 1 80 19 is_stmt 0 view .LVU484
 1618 000a C288     		ldrh	r2, [r0, #6]
 1619              	.LVL214:
  80:tinyusb/src/common/tusb_fifo.c ****   f->overwritable = overwritable;
ARM GAS  /tmp/cc5fbsfm.s 			page 51


 1620              		.loc 1 80 19 view .LVU485
 1621 000c 63F30E02 		bfi	r2, r3, #0, #15
 1622 0010 C280     		strh	r2, [r0, #6]	@ movhi
  81:tinyusb/src/common/tusb_fifo.c ****   f->rd_idx       = 0;
 1623              		.loc 1 81 3 is_stmt 1 view .LVU486
  81:tinyusb/src/common/tusb_fifo.c ****   f->rd_idx       = 0;
 1624              		.loc 1 81 19 is_stmt 0 view .LVU487
 1625 0012 C379     		ldrb	r3, [r0, #7]	@ zero_extendqisi2
 1626              	.LVL215:
  81:tinyusb/src/common/tusb_fifo.c ****   f->rd_idx       = 0;
 1627              		.loc 1 81 19 view .LVU488
 1628 0014 9DF80020 		ldrb	r2, [sp]	@ zero_extendqisi2
 1629 0018 62F3C713 		bfi	r3, r2, #7, #1
 1630              	.LVL216:
  81:tinyusb/src/common/tusb_fifo.c ****   f->rd_idx       = 0;
 1631              		.loc 1 81 19 view .LVU489
 1632 001c C371     		strb	r3, [r0, #7]
  82:tinyusb/src/common/tusb_fifo.c ****   f->wr_idx       = 0;
 1633              		.loc 1 82 3 is_stmt 1 view .LVU490
  82:tinyusb/src/common/tusb_fifo.c ****   f->wr_idx       = 0;
 1634              		.loc 1 82 19 is_stmt 0 view .LVU491
 1635 001e 0023     		movs	r3, #0
 1636 0020 4381     		strh	r3, [r0, #10]	@ movhi
  83:tinyusb/src/common/tusb_fifo.c **** 
 1637              		.loc 1 83 3 is_stmt 1 view .LVU492
  83:tinyusb/src/common/tusb_fifo.c **** 
 1638              		.loc 1 83 19 is_stmt 0 view .LVU493
 1639 0022 0381     		strh	r3, [r0, #8]	@ movhi
  85:tinyusb/src/common/tusb_fifo.c ****   _ff_unlock(f->mutex_rd);
 1640              		.loc 1 85 26 is_stmt 1 view .LVU494
  86:tinyusb/src/common/tusb_fifo.c **** 
 1641              		.loc 1 86 26 view .LVU495
  88:tinyusb/src/common/tusb_fifo.c **** }
 1642              		.loc 1 88 3 view .LVU496
  88:tinyusb/src/common/tusb_fifo.c **** }
 1643              		.loc 1 88 10 is_stmt 0 view .LVU497
 1644 0024 0120     		movs	r0, #1
 1645              	.LVL217:
  88:tinyusb/src/common/tusb_fifo.c **** }
 1646              		.loc 1 88 10 view .LVU498
 1647 0026 7047     		bx	lr
 1648              	.LVL218:
 1649              	.L85:
  73:tinyusb/src/common/tusb_fifo.c **** 
 1650              		.loc 1 73 30 view .LVU499
 1651 0028 0020     		movs	r0, #0
 1652              	.LVL219:
  89:tinyusb/src/common/tusb_fifo.c **** 
 1653              		.loc 1 89 1 view .LVU500
 1654 002a 7047     		bx	lr
 1655              		.cfi_endproc
 1656              	.LFE58:
 1658              		.section	.text.tu_fifo_count,"ax",%progbits
 1659              		.align	1
 1660              		.global	tu_fifo_count
 1661              		.syntax unified
 1662              		.thumb
ARM GAS  /tmp/cc5fbsfm.s 			page 52


 1663              		.thumb_func
 1664              		.fpu fpv4-sp-d16
 1666              	tu_fifo_count:
 1667              	.LVL220:
 1668              	.LFB74:
 564:tinyusb/src/common/tusb_fifo.c **** 
 565:tinyusb/src/common/tusb_fifo.c **** //--------------------------------------------------------------------+
 566:tinyusb/src/common/tusb_fifo.c **** // Application API
 567:tinyusb/src/common/tusb_fifo.c **** //--------------------------------------------------------------------+
 568:tinyusb/src/common/tusb_fifo.c **** 
 569:tinyusb/src/common/tusb_fifo.c **** /******************************************************************************/
 570:tinyusb/src/common/tusb_fifo.c **** /*!
 571:tinyusb/src/common/tusb_fifo.c ****     @brief Get number of items in FIFO.
 572:tinyusb/src/common/tusb_fifo.c **** 
 573:tinyusb/src/common/tusb_fifo.c ****     As this function only reads the read and write pointers once, this function is
 574:tinyusb/src/common/tusb_fifo.c ****     reentrant and thus thread and ISR save without any mutexes. In case an
 575:tinyusb/src/common/tusb_fifo.c ****     overflow occurred, this function return f.depth at maximum. Overflows are
 576:tinyusb/src/common/tusb_fifo.c ****     checked and corrected for in the read functions!
 577:tinyusb/src/common/tusb_fifo.c **** 
 578:tinyusb/src/common/tusb_fifo.c ****     @param[in]  f
 579:tinyusb/src/common/tusb_fifo.c ****                 Pointer to the FIFO buffer to manipulate
 580:tinyusb/src/common/tusb_fifo.c **** 
 581:tinyusb/src/common/tusb_fifo.c ****     @returns Number of items in FIFO
 582:tinyusb/src/common/tusb_fifo.c ****  */
 583:tinyusb/src/common/tusb_fifo.c **** /******************************************************************************/
 584:tinyusb/src/common/tusb_fifo.c **** uint16_t tu_fifo_count(tu_fifo_t* f)
 585:tinyusb/src/common/tusb_fifo.c **** {
 1669              		.loc 1 585 1 is_stmt 1 view -0
 1670              		.cfi_startproc
 1671              		@ args = 0, pretend = 0, frame = 0
 1672              		@ frame_needed = 0, uses_anonymous_args = 0
 1673              		@ link register save eliminated.
 1674              		.loc 1 585 1 is_stmt 0 view .LVU502
 1675 0000 0246     		mov	r2, r0
 586:tinyusb/src/common/tusb_fifo.c ****   return tu_min16(_ff_count(f->depth, f->wr_idx, f->rd_idx), f->depth);
 1676              		.loc 1 586 3 is_stmt 1 view .LVU503
 1677              		.loc 1 586 10 is_stmt 0 view .LVU504
 1678 0002 8088     		ldrh	r0, [r0, #4]
 1679              	.LVL221:
 1680              		.loc 1 586 10 view .LVU505
 1681 0004 1389     		ldrh	r3, [r2, #8]
 1682 0006 9BB2     		uxth	r3, r3
 1683 0008 5289     		ldrh	r2, [r2, #10]
 1684              	.LVL222:
 1685              		.loc 1 586 10 view .LVU506
 1686 000a 92B2     		uxth	r2, r2
 1687              	.LVL223:
 1688              	.LBB157:
 1689              	.LBI157:
 324:tinyusb/src/common/tusb_fifo.c **** {
 1690              		.loc 1 324 10 is_stmt 1 view .LVU507
 1691              	.LBB158:
 327:tinyusb/src/common/tusb_fifo.c ****   {
 1692              		.loc 1 327 3 view .LVU508
 327:tinyusb/src/common/tusb_fifo.c ****   {
 1693              		.loc 1 327 6 is_stmt 0 view .LVU509
 1694 000c 9342     		cmp	r3, r2
ARM GAS  /tmp/cc5fbsfm.s 			page 53


 1695 000e 05D3     		bcc	.L87
 329:tinyusb/src/common/tusb_fifo.c ****   } else
 1696              		.loc 1 329 5 is_stmt 1 view .LVU510
 329:tinyusb/src/common/tusb_fifo.c ****   } else
 1697              		.loc 1 329 12 is_stmt 0 view .LVU511
 1698 0010 9B1A     		subs	r3, r3, r2
 1699              	.LVL224:
 329:tinyusb/src/common/tusb_fifo.c ****   } else
 1700              		.loc 1 329 12 view .LVU512
 1701 0012 9BB2     		uxth	r3, r3
 1702              	.LVL225:
 1703              	.L88:
 329:tinyusb/src/common/tusb_fifo.c ****   } else
 1704              		.loc 1 329 12 view .LVU513
 1705              	.LBE158:
 1706              	.LBE157:
 1707              	.LBB160:
 1708              	.LBI160:
 149:tinyusb/src/common/tusb_common.h **** TU_ATTR_ALWAYS_INLINE static inline uint32_t tu_min32 (uint32_t x, uint32_t y) { return (x < y) ? x
 1709              		.loc 2 149 46 is_stmt 1 view .LVU514
 1710              	.LBB161:
 149:tinyusb/src/common/tusb_common.h **** TU_ATTR_ALWAYS_INLINE static inline uint32_t tu_min32 (uint32_t x, uint32_t y) { return (x < y) ? x
 1711              		.loc 2 149 82 view .LVU515
 149:tinyusb/src/common/tusb_common.h **** TU_ATTR_ALWAYS_INLINE static inline uint32_t tu_min32 (uint32_t x, uint32_t y) { return (x < y) ? x
 1712              		.loc 2 149 82 is_stmt 0 view .LVU516
 1713              	.LBE161:
 1714              	.LBE160:
 587:tinyusb/src/common/tusb_fifo.c **** }
 1715              		.loc 1 587 1 view .LVU517
 1716 0014 9842     		cmp	r0, r3
 1717 0016 28BF     		it	cs
 1718 0018 1846     		movcs	r0, r3
 1719 001a 7047     		bx	lr
 1720              	.LVL226:
 1721              	.L87:
 1722              	.LBB162:
 1723              	.LBB159:
 332:tinyusb/src/common/tusb_fifo.c ****   }
 1724              		.loc 1 332 5 is_stmt 1 view .LVU518
 332:tinyusb/src/common/tusb_fifo.c ****   }
 1725              		.loc 1 332 32 is_stmt 0 view .LVU519
 1726 001c 9B1A     		subs	r3, r3, r2
 1727              	.LVL227:
 332:tinyusb/src/common/tusb_fifo.c ****   }
 1728              		.loc 1 332 12 view .LVU520
 1729 001e 4200     		lsls	r2, r0, #1
 1730              	.LVL228:
 332:tinyusb/src/common/tusb_fifo.c ****   }
 1731              		.loc 1 332 12 view .LVU521
 1732 0020 12FA83F3 		uxtah	r3, r2, r3
 1733 0024 9BB2     		uxth	r3, r3
 1734 0026 F5E7     		b	.L88
 1735              	.LBE159:
 1736              	.LBE162:
 1737              		.cfi_endproc
 1738              	.LFE74:
 1740              		.section	.text.tu_fifo_empty,"ax",%progbits
ARM GAS  /tmp/cc5fbsfm.s 			page 54


 1741              		.align	1
 1742              		.global	tu_fifo_empty
 1743              		.syntax unified
 1744              		.thumb
 1745              		.thumb_func
 1746              		.fpu fpv4-sp-d16
 1748              	tu_fifo_empty:
 1749              	.LVL229:
 1750              	.LFB75:
 588:tinyusb/src/common/tusb_fifo.c **** 
 589:tinyusb/src/common/tusb_fifo.c **** /******************************************************************************/
 590:tinyusb/src/common/tusb_fifo.c **** /*!
 591:tinyusb/src/common/tusb_fifo.c ****     @brief Check if FIFO is empty.
 592:tinyusb/src/common/tusb_fifo.c **** 
 593:tinyusb/src/common/tusb_fifo.c ****     As this function only reads the read and write pointers once, this function is
 594:tinyusb/src/common/tusb_fifo.c ****     reentrant and thus thread and ISR save without any mutexes.
 595:tinyusb/src/common/tusb_fifo.c **** 
 596:tinyusb/src/common/tusb_fifo.c ****     @param[in]  f
 597:tinyusb/src/common/tusb_fifo.c ****                 Pointer to the FIFO buffer to manipulate
 598:tinyusb/src/common/tusb_fifo.c **** 
 599:tinyusb/src/common/tusb_fifo.c ****     @returns Number of items in FIFO
 600:tinyusb/src/common/tusb_fifo.c ****  */
 601:tinyusb/src/common/tusb_fifo.c **** /******************************************************************************/
 602:tinyusb/src/common/tusb_fifo.c **** bool tu_fifo_empty(tu_fifo_t* f)
 603:tinyusb/src/common/tusb_fifo.c **** {
 1751              		.loc 1 603 1 is_stmt 1 view -0
 1752              		.cfi_startproc
 1753              		@ args = 0, pretend = 0, frame = 0
 1754              		@ frame_needed = 0, uses_anonymous_args = 0
 1755              		@ link register save eliminated.
 604:tinyusb/src/common/tusb_fifo.c ****   return f->wr_idx == f->rd_idx;
 1756              		.loc 1 604 3 view .LVU523
 1757              		.loc 1 604 11 is_stmt 0 view .LVU524
 1758 0000 0289     		ldrh	r2, [r0, #8]
 1759 0002 92B2     		uxth	r2, r2
 1760              		.loc 1 604 24 view .LVU525
 1761 0004 4389     		ldrh	r3, [r0, #10]
 1762 0006 9BB2     		uxth	r3, r3
 605:tinyusb/src/common/tusb_fifo.c **** }
 1763              		.loc 1 605 1 view .LVU526
 1764 0008 9A42     		cmp	r2, r3
 1765 000a 14BF     		ite	ne
 1766 000c 0020     		movne	r0, #0
 1767              	.LVL230:
 1768              		.loc 1 605 1 view .LVU527
 1769 000e 0120     		moveq	r0, #1
 1770 0010 7047     		bx	lr
 1771              		.cfi_endproc
 1772              	.LFE75:
 1774              		.section	.text.tu_fifo_full,"ax",%progbits
 1775              		.align	1
 1776              		.global	tu_fifo_full
 1777              		.syntax unified
 1778              		.thumb
 1779              		.thumb_func
 1780              		.fpu fpv4-sp-d16
 1782              	tu_fifo_full:
ARM GAS  /tmp/cc5fbsfm.s 			page 55


 1783              	.LVL231:
 1784              	.LFB76:
 606:tinyusb/src/common/tusb_fifo.c **** 
 607:tinyusb/src/common/tusb_fifo.c **** /******************************************************************************/
 608:tinyusb/src/common/tusb_fifo.c **** /*!
 609:tinyusb/src/common/tusb_fifo.c ****     @brief Check if FIFO is full.
 610:tinyusb/src/common/tusb_fifo.c **** 
 611:tinyusb/src/common/tusb_fifo.c ****     As this function only reads the read and write pointers once, this function is
 612:tinyusb/src/common/tusb_fifo.c ****     reentrant and thus thread and ISR save without any mutexes.
 613:tinyusb/src/common/tusb_fifo.c **** 
 614:tinyusb/src/common/tusb_fifo.c ****     @param[in]  f
 615:tinyusb/src/common/tusb_fifo.c ****                 Pointer to the FIFO buffer to manipulate
 616:tinyusb/src/common/tusb_fifo.c **** 
 617:tinyusb/src/common/tusb_fifo.c ****     @returns Number of items in FIFO
 618:tinyusb/src/common/tusb_fifo.c ****  */
 619:tinyusb/src/common/tusb_fifo.c **** /******************************************************************************/
 620:tinyusb/src/common/tusb_fifo.c **** bool tu_fifo_full(tu_fifo_t* f)
 621:tinyusb/src/common/tusb_fifo.c **** {
 1785              		.loc 1 621 1 is_stmt 1 view -0
 1786              		.cfi_startproc
 1787              		@ args = 0, pretend = 0, frame = 0
 1788              		@ frame_needed = 0, uses_anonymous_args = 0
 1789              		@ link register save eliminated.
 622:tinyusb/src/common/tusb_fifo.c ****   return _ff_count(f->depth, f->wr_idx, f->rd_idx) >= f->depth;
 1790              		.loc 1 622 3 view .LVU529
 1791              		.loc 1 622 10 is_stmt 0 view .LVU530
 1792 0000 8188     		ldrh	r1, [r0, #4]
 1793 0002 0389     		ldrh	r3, [r0, #8]
 1794 0004 9BB2     		uxth	r3, r3
 1795 0006 4289     		ldrh	r2, [r0, #10]
 1796 0008 92B2     		uxth	r2, r2
 1797              	.LVL232:
 1798              	.LBB163:
 1799              	.LBI163:
 324:tinyusb/src/common/tusb_fifo.c **** {
 1800              		.loc 1 324 10 is_stmt 1 view .LVU531
 1801              	.LBB164:
 327:tinyusb/src/common/tusb_fifo.c ****   {
 1802              		.loc 1 327 3 view .LVU532
 327:tinyusb/src/common/tusb_fifo.c ****   {
 1803              		.loc 1 327 6 is_stmt 0 view .LVU533
 1804 000a 9342     		cmp	r3, r2
 1805 000c 06D3     		bcc	.L91
 329:tinyusb/src/common/tusb_fifo.c ****   } else
 1806              		.loc 1 329 5 is_stmt 1 view .LVU534
 329:tinyusb/src/common/tusb_fifo.c ****   } else
 1807              		.loc 1 329 12 is_stmt 0 view .LVU535
 1808 000e 9B1A     		subs	r3, r3, r2
 1809              	.LVL233:
 329:tinyusb/src/common/tusb_fifo.c ****   } else
 1810              		.loc 1 329 12 view .LVU536
 1811 0010 98B2     		uxth	r0, r3
 1812              	.LVL234:
 1813              	.L92:
 329:tinyusb/src/common/tusb_fifo.c ****   } else
 1814              		.loc 1 329 12 view .LVU537
 1815              	.LBE164:
ARM GAS  /tmp/cc5fbsfm.s 			page 56


 1816              	.LBE163:
 623:tinyusb/src/common/tusb_fifo.c **** }
 1817              		.loc 1 623 1 view .LVU538
 1818 0012 8142     		cmp	r1, r0
 1819 0014 8CBF     		ite	hi
 1820 0016 0020     		movhi	r0, #0
 1821 0018 0120     		movls	r0, #1
 1822 001a 7047     		bx	lr
 1823              	.LVL235:
 1824              	.L91:
 1825              	.LBB166:
 1826              	.LBB165:
 332:tinyusb/src/common/tusb_fifo.c ****   }
 1827              		.loc 1 332 5 is_stmt 1 view .LVU539
 332:tinyusb/src/common/tusb_fifo.c ****   }
 1828              		.loc 1 332 32 is_stmt 0 view .LVU540
 1829 001c 9B1A     		subs	r3, r3, r2
 1830              	.LVL236:
 332:tinyusb/src/common/tusb_fifo.c ****   }
 1831              		.loc 1 332 12 view .LVU541
 1832 001e 4800     		lsls	r0, r1, #1
 1833              	.LVL237:
 332:tinyusb/src/common/tusb_fifo.c ****   }
 1834              		.loc 1 332 12 view .LVU542
 1835 0020 10FA83F3 		uxtah	r3, r0, r3
 1836 0024 98B2     		uxth	r0, r3
 1837 0026 F4E7     		b	.L92
 1838              	.LBE165:
 1839              	.LBE166:
 1840              		.cfi_endproc
 1841              	.LFE76:
 1843              		.section	.text.tu_fifo_remaining,"ax",%progbits
 1844              		.align	1
 1845              		.global	tu_fifo_remaining
 1846              		.syntax unified
 1847              		.thumb
 1848              		.thumb_func
 1849              		.fpu fpv4-sp-d16
 1851              	tu_fifo_remaining:
 1852              	.LVL238:
 1853              	.LFB77:
 624:tinyusb/src/common/tusb_fifo.c **** 
 625:tinyusb/src/common/tusb_fifo.c **** /******************************************************************************/
 626:tinyusb/src/common/tusb_fifo.c **** /*!
 627:tinyusb/src/common/tusb_fifo.c ****     @brief Get remaining space in FIFO.
 628:tinyusb/src/common/tusb_fifo.c **** 
 629:tinyusb/src/common/tusb_fifo.c ****     As this function only reads the read and write pointers once, this function is
 630:tinyusb/src/common/tusb_fifo.c ****     reentrant and thus thread and ISR save without any mutexes.
 631:tinyusb/src/common/tusb_fifo.c **** 
 632:tinyusb/src/common/tusb_fifo.c ****     @param[in]  f
 633:tinyusb/src/common/tusb_fifo.c ****                 Pointer to the FIFO buffer to manipulate
 634:tinyusb/src/common/tusb_fifo.c **** 
 635:tinyusb/src/common/tusb_fifo.c ****     @returns Number of items in FIFO
 636:tinyusb/src/common/tusb_fifo.c ****  */
 637:tinyusb/src/common/tusb_fifo.c **** /******************************************************************************/
 638:tinyusb/src/common/tusb_fifo.c **** uint16_t tu_fifo_remaining(tu_fifo_t* f)
 639:tinyusb/src/common/tusb_fifo.c **** {
ARM GAS  /tmp/cc5fbsfm.s 			page 57


 1854              		.loc 1 639 1 is_stmt 1 view -0
 1855              		.cfi_startproc
 1856              		@ args = 0, pretend = 0, frame = 0
 1857              		@ frame_needed = 0, uses_anonymous_args = 0
 1858              		@ link register save eliminated.
 640:tinyusb/src/common/tusb_fifo.c ****   return _ff_remaining(f->depth, f->wr_idx, f->rd_idx);
 1859              		.loc 1 640 3 view .LVU544
 1860              		.loc 1 640 10 is_stmt 0 view .LVU545
 1861 0000 8288     		ldrh	r2, [r0, #4]
 1862 0002 0389     		ldrh	r3, [r0, #8]
 1863 0004 9BB2     		uxth	r3, r3
 1864 0006 4089     		ldrh	r0, [r0, #10]
 1865              	.LVL239:
 1866              		.loc 1 640 10 view .LVU546
 1867 0008 80B2     		uxth	r0, r0
 1868              	.LVL240:
 1869              	.LBB167:
 1870              	.LBI167:
 338:tinyusb/src/common/tusb_fifo.c **** {
 1871              		.loc 1 338 10 is_stmt 1 view .LVU547
 1872              	.LBB168:
 340:tinyusb/src/common/tusb_fifo.c ****   return (depth > count) ? (depth - count) : 0;
 1873              		.loc 1 340 3 view .LVU548
 1874              	.LBB169:
 1875              	.LBI169:
 324:tinyusb/src/common/tusb_fifo.c **** {
 1876              		.loc 1 324 10 view .LVU549
 1877              	.LBB170:
 327:tinyusb/src/common/tusb_fifo.c ****   {
 1878              		.loc 1 327 3 view .LVU550
 327:tinyusb/src/common/tusb_fifo.c ****   {
 1879              		.loc 1 327 6 is_stmt 0 view .LVU551
 1880 000a 8342     		cmp	r3, r0
 1881 000c 06D3     		bcc	.L94
 329:tinyusb/src/common/tusb_fifo.c ****   } else
 1882              		.loc 1 329 5 is_stmt 1 view .LVU552
 329:tinyusb/src/common/tusb_fifo.c ****   } else
 1883              		.loc 1 329 12 is_stmt 0 view .LVU553
 1884 000e 1B1A     		subs	r3, r3, r0
 1885              	.LVL241:
 329:tinyusb/src/common/tusb_fifo.c ****   } else
 1886              		.loc 1 329 12 view .LVU554
 1887 0010 9BB2     		uxth	r3, r3
 1888              	.LVL242:
 1889              	.L95:
 329:tinyusb/src/common/tusb_fifo.c ****   } else
 1890              		.loc 1 329 12 view .LVU555
 1891              	.LBE170:
 1892              	.LBE169:
 341:tinyusb/src/common/tusb_fifo.c **** }
 1893              		.loc 1 341 3 is_stmt 1 view .LVU556
 341:tinyusb/src/common/tusb_fifo.c **** }
 1894              		.loc 1 341 44 is_stmt 0 view .LVU557
 1895 0012 9A42     		cmp	r2, r3
 1896 0014 08D9     		bls	.L97
 1897 0016 D31A     		subs	r3, r2, r3
 1898              	.LVL243:
ARM GAS  /tmp/cc5fbsfm.s 			page 58


 341:tinyusb/src/common/tusb_fifo.c **** }
 1899              		.loc 1 341 44 view .LVU558
 1900 0018 98B2     		uxth	r0, r3
 1901 001a 7047     		bx	lr
 1902              	.LVL244:
 1903              	.L94:
 1904              	.LBB172:
 1905              	.LBB171:
 332:tinyusb/src/common/tusb_fifo.c ****   }
 1906              		.loc 1 332 5 is_stmt 1 view .LVU559
 332:tinyusb/src/common/tusb_fifo.c ****   }
 1907              		.loc 1 332 32 is_stmt 0 view .LVU560
 1908 001c 1B1A     		subs	r3, r3, r0
 1909              	.LVL245:
 332:tinyusb/src/common/tusb_fifo.c ****   }
 1910              		.loc 1 332 12 view .LVU561
 1911 001e 5000     		lsls	r0, r2, #1
 1912              	.LVL246:
 332:tinyusb/src/common/tusb_fifo.c ****   }
 1913              		.loc 1 332 12 view .LVU562
 1914 0020 10FA83F3 		uxtah	r3, r0, r3
 1915 0024 9BB2     		uxth	r3, r3
 1916 0026 F4E7     		b	.L95
 1917              	.LVL247:
 1918              	.L97:
 332:tinyusb/src/common/tusb_fifo.c ****   }
 1919              		.loc 1 332 12 view .LVU563
 1920              	.LBE171:
 1921              	.LBE172:
 341:tinyusb/src/common/tusb_fifo.c **** }
 1922              		.loc 1 341 44 view .LVU564
 1923 0028 0020     		movs	r0, #0
 1924              	.LVL248:
 341:tinyusb/src/common/tusb_fifo.c **** }
 1925              		.loc 1 341 44 view .LVU565
 1926              	.LBE168:
 1927              	.LBE167:
 641:tinyusb/src/common/tusb_fifo.c **** }
 1928              		.loc 1 641 1 view .LVU566
 1929 002a 7047     		bx	lr
 1930              		.cfi_endproc
 1931              	.LFE77:
 1933              		.section	.text.tu_fifo_overflowed,"ax",%progbits
 1934              		.align	1
 1935              		.global	tu_fifo_overflowed
 1936              		.syntax unified
 1937              		.thumb
 1938              		.thumb_func
 1939              		.fpu fpv4-sp-d16
 1941              	tu_fifo_overflowed:
 1942              	.LVL249:
 1943              	.LFB78:
 642:tinyusb/src/common/tusb_fifo.c **** 
 643:tinyusb/src/common/tusb_fifo.c **** /******************************************************************************/
 644:tinyusb/src/common/tusb_fifo.c **** /*!
 645:tinyusb/src/common/tusb_fifo.c ****     @brief Check if overflow happened.
 646:tinyusb/src/common/tusb_fifo.c **** 
ARM GAS  /tmp/cc5fbsfm.s 			page 59


 647:tinyusb/src/common/tusb_fifo.c ****      BE AWARE - THIS FUNCTION MIGHT NOT GIVE A CORRECT ANSWERE IN CASE WRITE POINTER "OVERFLOWS"
 648:tinyusb/src/common/tusb_fifo.c ****      Only one overflow is allowed for this function to work e.g. if depth = 100, you must not
 649:tinyusb/src/common/tusb_fifo.c ****      write more than 2*depth-1 items in one rush without updating write pointer. Otherwise
 650:tinyusb/src/common/tusb_fifo.c ****      write pointer wraps and your pointer states are messed up. This can only happen if you
 651:tinyusb/src/common/tusb_fifo.c ****      use DMAs, write functions do not allow such an error. Avoid such nasty things!
 652:tinyusb/src/common/tusb_fifo.c **** 
 653:tinyusb/src/common/tusb_fifo.c ****      All reading functions (read, peek) check for overflows and correct read pointer on their own s
 654:tinyusb/src/common/tusb_fifo.c ****      that latest items are read.
 655:tinyusb/src/common/tusb_fifo.c ****      If required (e.g. for DMA use) you can also correct the read pointer by
 656:tinyusb/src/common/tusb_fifo.c ****      tu_fifo_correct_read_pointer().
 657:tinyusb/src/common/tusb_fifo.c **** 
 658:tinyusb/src/common/tusb_fifo.c ****     @param[in]  f
 659:tinyusb/src/common/tusb_fifo.c ****                 Pointer to the FIFO buffer to manipulate
 660:tinyusb/src/common/tusb_fifo.c **** 
 661:tinyusb/src/common/tusb_fifo.c ****     @returns True if overflow happened
 662:tinyusb/src/common/tusb_fifo.c ****  */
 663:tinyusb/src/common/tusb_fifo.c **** /******************************************************************************/
 664:tinyusb/src/common/tusb_fifo.c **** bool tu_fifo_overflowed(tu_fifo_t* f)
 665:tinyusb/src/common/tusb_fifo.c **** {
 1944              		.loc 1 665 1 is_stmt 1 view -0
 1945              		.cfi_startproc
 1946              		@ args = 0, pretend = 0, frame = 0
 1947              		@ frame_needed = 0, uses_anonymous_args = 0
 1948              		@ link register save eliminated.
 666:tinyusb/src/common/tusb_fifo.c ****   return _ff_count(f->depth, f->wr_idx, f->rd_idx) > f->depth;
 1949              		.loc 1 666 3 view .LVU568
 1950              		.loc 1 666 10 is_stmt 0 view .LVU569
 1951 0000 8188     		ldrh	r1, [r0, #4]
 1952 0002 0389     		ldrh	r3, [r0, #8]
 1953 0004 9BB2     		uxth	r3, r3
 1954 0006 4289     		ldrh	r2, [r0, #10]
 1955 0008 92B2     		uxth	r2, r2
 1956              	.LVL250:
 1957              	.LBB173:
 1958              	.LBI173:
 324:tinyusb/src/common/tusb_fifo.c **** {
 1959              		.loc 1 324 10 is_stmt 1 view .LVU570
 1960              	.LBB174:
 327:tinyusb/src/common/tusb_fifo.c ****   {
 1961              		.loc 1 327 3 view .LVU571
 327:tinyusb/src/common/tusb_fifo.c ****   {
 1962              		.loc 1 327 6 is_stmt 0 view .LVU572
 1963 000a 9342     		cmp	r3, r2
 1964 000c 06D3     		bcc	.L99
 329:tinyusb/src/common/tusb_fifo.c ****   } else
 1965              		.loc 1 329 5 is_stmt 1 view .LVU573
 329:tinyusb/src/common/tusb_fifo.c ****   } else
 1966              		.loc 1 329 12 is_stmt 0 view .LVU574
 1967 000e 9B1A     		subs	r3, r3, r2
 1968              	.LVL251:
 329:tinyusb/src/common/tusb_fifo.c ****   } else
 1969              		.loc 1 329 12 view .LVU575
 1970 0010 98B2     		uxth	r0, r3
 1971              	.LVL252:
 1972              	.L100:
 329:tinyusb/src/common/tusb_fifo.c ****   } else
 1973              		.loc 1 329 12 view .LVU576
ARM GAS  /tmp/cc5fbsfm.s 			page 60


 1974              	.LBE174:
 1975              	.LBE173:
 667:tinyusb/src/common/tusb_fifo.c **** }
 1976              		.loc 1 667 1 view .LVU577
 1977 0012 8142     		cmp	r1, r0
 1978 0014 2CBF     		ite	cs
 1979 0016 0020     		movcs	r0, #0
 1980 0018 0120     		movcc	r0, #1
 1981 001a 7047     		bx	lr
 1982              	.LVL253:
 1983              	.L99:
 1984              	.LBB176:
 1985              	.LBB175:
 332:tinyusb/src/common/tusb_fifo.c ****   }
 1986              		.loc 1 332 5 is_stmt 1 view .LVU578
 332:tinyusb/src/common/tusb_fifo.c ****   }
 1987              		.loc 1 332 32 is_stmt 0 view .LVU579
 1988 001c 9B1A     		subs	r3, r3, r2
 1989              	.LVL254:
 332:tinyusb/src/common/tusb_fifo.c ****   }
 1990              		.loc 1 332 12 view .LVU580
 1991 001e 4800     		lsls	r0, r1, #1
 1992              	.LVL255:
 332:tinyusb/src/common/tusb_fifo.c ****   }
 1993              		.loc 1 332 12 view .LVU581
 1994 0020 10FA83F3 		uxtah	r3, r0, r3
 1995 0024 98B2     		uxth	r0, r3
 1996 0026 F4E7     		b	.L100
 1997              	.LBE175:
 1998              	.LBE176:
 1999              		.cfi_endproc
 2000              	.LFE78:
 2002              		.section	.text.tu_fifo_correct_read_pointer,"ax",%progbits
 2003              		.align	1
 2004              		.global	tu_fifo_correct_read_pointer
 2005              		.syntax unified
 2006              		.thumb
 2007              		.thumb_func
 2008              		.fpu fpv4-sp-d16
 2010              	tu_fifo_correct_read_pointer:
 2011              	.LVL256:
 2012              	.LFB79:
 668:tinyusb/src/common/tusb_fifo.c **** 
 669:tinyusb/src/common/tusb_fifo.c **** // Only use in case tu_fifo_overflow() returned true!
 670:tinyusb/src/common/tusb_fifo.c **** void tu_fifo_correct_read_pointer(tu_fifo_t* f)
 671:tinyusb/src/common/tusb_fifo.c **** {
 2013              		.loc 1 671 1 is_stmt 1 view -0
 2014              		.cfi_startproc
 2015              		@ args = 0, pretend = 0, frame = 0
 2016              		@ frame_needed = 0, uses_anonymous_args = 0
 2017              		@ link register save eliminated.
 672:tinyusb/src/common/tusb_fifo.c ****   _ff_lock(f->mutex_rd);
 2018              		.loc 1 672 24 view .LVU583
 673:tinyusb/src/common/tusb_fifo.c ****   _ff_correct_read_index(f, f->wr_idx);
 2019              		.loc 1 673 3 view .LVU584
 2020 0000 0389     		ldrh	r3, [r0, #8]
 2021 0002 9BB2     		uxth	r3, r3
ARM GAS  /tmp/cc5fbsfm.s 			page 61


 2022              	.LVL257:
 2023              	.LBB177:
 2024              	.LBI177:
 396:tinyusb/src/common/tusb_fifo.c **** {
 2025              		.loc 1 396 10 view .LVU585
 2026              	.LBB178:
 398:tinyusb/src/common/tusb_fifo.c ****   if ( wr_idx >= f->depth )
 2027              		.loc 1 398 3 view .LVU586
 399:tinyusb/src/common/tusb_fifo.c ****   {
 2028              		.loc 1 399 3 view .LVU587
 399:tinyusb/src/common/tusb_fifo.c ****   {
 2029              		.loc 1 399 19 is_stmt 0 view .LVU588
 2030 0004 8288     		ldrh	r2, [r0, #4]
 399:tinyusb/src/common/tusb_fifo.c ****   {
 2031              		.loc 1 399 6 view .LVU589
 2032 0006 9342     		cmp	r3, r2
 2033 0008 03D3     		bcc	.L102
 401:tinyusb/src/common/tusb_fifo.c ****   }else
 2034              		.loc 1 401 5 is_stmt 1 view .LVU590
 401:tinyusb/src/common/tusb_fifo.c ****   }else
 2035              		.loc 1 401 12 is_stmt 0 view .LVU591
 2036 000a 9B1A     		subs	r3, r3, r2
 2037              	.LVL258:
 401:tinyusb/src/common/tusb_fifo.c ****   }else
 2038              		.loc 1 401 12 view .LVU592
 2039 000c 9BB2     		uxth	r3, r3
 2040              	.LVL259:
 2041              	.L103:
 407:tinyusb/src/common/tusb_fifo.c **** 
 2042              		.loc 1 407 3 is_stmt 1 view .LVU593
 407:tinyusb/src/common/tusb_fifo.c **** 
 2043              		.loc 1 407 13 is_stmt 0 view .LVU594
 2044 000e 4381     		strh	r3, [r0, #10]	@ movhi
 409:tinyusb/src/common/tusb_fifo.c **** }
 2045              		.loc 1 409 3 is_stmt 1 view .LVU595
 2046              	.LVL260:
 409:tinyusb/src/common/tusb_fifo.c **** }
 2047              		.loc 1 409 3 is_stmt 0 view .LVU596
 2048              	.LBE178:
 2049              	.LBE177:
 674:tinyusb/src/common/tusb_fifo.c ****   _ff_unlock(f->mutex_rd);
 2050              		.loc 1 674 26 is_stmt 1 view .LVU597
 675:tinyusb/src/common/tusb_fifo.c **** }
 2051              		.loc 1 675 1 is_stmt 0 view .LVU598
 2052 0010 7047     		bx	lr
 2053              	.LVL261:
 2054              	.L102:
 2055              	.LBB180:
 2056              	.LBB179:
 404:tinyusb/src/common/tusb_fifo.c ****   }
 2057              		.loc 1 404 5 is_stmt 1 view .LVU599
 404:tinyusb/src/common/tusb_fifo.c ****   }
 2058              		.loc 1 404 12 is_stmt 0 view .LVU600
 2059 0012 1344     		add	r3, r3, r2
 2060              	.LVL262:
 404:tinyusb/src/common/tusb_fifo.c ****   }
 2061              		.loc 1 404 12 view .LVU601
ARM GAS  /tmp/cc5fbsfm.s 			page 62


 2062 0014 9BB2     		uxth	r3, r3
 2063              	.LVL263:
 404:tinyusb/src/common/tusb_fifo.c ****   }
 2064              		.loc 1 404 12 view .LVU602
 2065 0016 FAE7     		b	.L103
 2066              	.LBE179:
 2067              	.LBE180:
 2068              		.cfi_endproc
 2069              	.LFE79:
 2071              		.section	.text.tu_fifo_read,"ax",%progbits
 2072              		.align	1
 2073              		.global	tu_fifo_read
 2074              		.syntax unified
 2075              		.thumb
 2076              		.thumb_func
 2077              		.fpu fpv4-sp-d16
 2079              	tu_fifo_read:
 2080              	.LVL264:
 2081              	.LFB80:
 676:tinyusb/src/common/tusb_fifo.c **** 
 677:tinyusb/src/common/tusb_fifo.c **** /******************************************************************************/
 678:tinyusb/src/common/tusb_fifo.c **** /*!
 679:tinyusb/src/common/tusb_fifo.c ****     @brief Read one element out of the buffer.
 680:tinyusb/src/common/tusb_fifo.c **** 
 681:tinyusb/src/common/tusb_fifo.c ****     This function will return the element located at the array index of the
 682:tinyusb/src/common/tusb_fifo.c ****     read pointer, and then increment the read pointer index.
 683:tinyusb/src/common/tusb_fifo.c ****     This function checks for an overflow and corrects read pointer if required.
 684:tinyusb/src/common/tusb_fifo.c **** 
 685:tinyusb/src/common/tusb_fifo.c ****     @param[in]  f
 686:tinyusb/src/common/tusb_fifo.c ****                 Pointer to the FIFO buffer to manipulate
 687:tinyusb/src/common/tusb_fifo.c ****     @param[in]  buffer
 688:tinyusb/src/common/tusb_fifo.c ****                 Pointer to the place holder for data read from the buffer
 689:tinyusb/src/common/tusb_fifo.c **** 
 690:tinyusb/src/common/tusb_fifo.c ****     @returns TRUE if the queue is not empty
 691:tinyusb/src/common/tusb_fifo.c ****  */
 692:tinyusb/src/common/tusb_fifo.c **** /******************************************************************************/
 693:tinyusb/src/common/tusb_fifo.c **** bool tu_fifo_read(tu_fifo_t* f, void * buffer)
 694:tinyusb/src/common/tusb_fifo.c **** {
 2082              		.loc 1 694 1 is_stmt 1 view -0
 2083              		.cfi_startproc
 2084              		@ args = 0, pretend = 0, frame = 0
 2085              		@ frame_needed = 0, uses_anonymous_args = 0
 2086              		.loc 1 694 1 is_stmt 0 view .LVU604
 2087 0000 38B5     		push	{r3, r4, r5, lr}
 2088              	.LCFI26:
 2089              		.cfi_def_cfa_offset 16
 2090              		.cfi_offset 3, -16
 2091              		.cfi_offset 4, -12
 2092              		.cfi_offset 5, -8
 2093              		.cfi_offset 14, -4
 2094 0002 0446     		mov	r4, r0
 695:tinyusb/src/common/tusb_fifo.c ****   _ff_lock(f->mutex_rd);
 2095              		.loc 1 695 24 is_stmt 1 view .LVU605
 696:tinyusb/src/common/tusb_fifo.c **** 
 697:tinyusb/src/common/tusb_fifo.c ****   // Peek the data
 698:tinyusb/src/common/tusb_fifo.c ****   // f->rd_idx might get modified in case of an overflow so we can not use a local variable
 699:tinyusb/src/common/tusb_fifo.c ****   bool ret = _tu_fifo_peek(f, buffer, f->wr_idx, f->rd_idx);
ARM GAS  /tmp/cc5fbsfm.s 			page 63


 2096              		.loc 1 699 3 view .LVU606
 2097              		.loc 1 699 14 is_stmt 0 view .LVU607
 2098 0004 0289     		ldrh	r2, [r0, #8]
 2099 0006 4389     		ldrh	r3, [r0, #10]
 2100 0008 9BB2     		uxth	r3, r3
 2101 000a 92B2     		uxth	r2, r2
 2102 000c FFF7FEFF 		bl	_tu_fifo_peek
 2103              	.LVL265:
 2104              		.loc 1 699 14 view .LVU608
 2105 0010 0546     		mov	r5, r0
 2106              	.LVL266:
 700:tinyusb/src/common/tusb_fifo.c **** 
 701:tinyusb/src/common/tusb_fifo.c ****   // Advance pointer
 702:tinyusb/src/common/tusb_fifo.c ****   f->rd_idx = advance_index(f->depth, f->rd_idx, ret);
 2107              		.loc 1 702 3 is_stmt 1 view .LVU609
 2108              		.loc 1 702 15 is_stmt 0 view .LVU610
 2109 0012 6189     		ldrh	r1, [r4, #10]
 2110 0014 82B2     		uxth	r2, r0
 2111 0016 89B2     		uxth	r1, r1
 2112 0018 A088     		ldrh	r0, [r4, #4]
 2113              	.LVL267:
 2114              		.loc 1 702 15 view .LVU611
 2115 001a FFF7FEFF 		bl	advance_index
 2116              	.LVL268:
 2117              		.loc 1 702 13 view .LVU612
 2118 001e 6081     		strh	r0, [r4, #10]	@ movhi
 703:tinyusb/src/common/tusb_fifo.c **** 
 704:tinyusb/src/common/tusb_fifo.c ****   _ff_unlock(f->mutex_rd);
 2119              		.loc 1 704 26 is_stmt 1 view .LVU613
 705:tinyusb/src/common/tusb_fifo.c ****   return ret;
 2120              		.loc 1 705 3 view .LVU614
 706:tinyusb/src/common/tusb_fifo.c **** }
 2121              		.loc 1 706 1 is_stmt 0 view .LVU615
 2122 0020 2846     		mov	r0, r5
 2123 0022 38BD     		pop	{r3, r4, r5, pc}
 2124              		.loc 1 706 1 view .LVU616
 2125              		.cfi_endproc
 2126              	.LFE80:
 2128              		.section	.text.tu_fifo_read_n,"ax",%progbits
 2129              		.align	1
 2130              		.global	tu_fifo_read_n
 2131              		.syntax unified
 2132              		.thumb
 2133              		.thumb_func
 2134              		.fpu fpv4-sp-d16
 2136              	tu_fifo_read_n:
 2137              	.LVL269:
 2138              	.LFB81:
 707:tinyusb/src/common/tusb_fifo.c **** 
 708:tinyusb/src/common/tusb_fifo.c **** /******************************************************************************/
 709:tinyusb/src/common/tusb_fifo.c **** /*!
 710:tinyusb/src/common/tusb_fifo.c ****     @brief This function will read n elements from the array index specified by
 711:tinyusb/src/common/tusb_fifo.c ****     the read pointer and increment the read index.
 712:tinyusb/src/common/tusb_fifo.c ****     This function checks for an overflow and corrects read pointer if required.
 713:tinyusb/src/common/tusb_fifo.c **** 
 714:tinyusb/src/common/tusb_fifo.c ****     @param[in]  f
 715:tinyusb/src/common/tusb_fifo.c ****                 Pointer to the FIFO buffer to manipulate
ARM GAS  /tmp/cc5fbsfm.s 			page 64


 716:tinyusb/src/common/tusb_fifo.c ****     @param[in]  buffer
 717:tinyusb/src/common/tusb_fifo.c ****                 The pointer to data location
 718:tinyusb/src/common/tusb_fifo.c ****     @param[in]  n
 719:tinyusb/src/common/tusb_fifo.c ****                 Number of element that buffer can afford
 720:tinyusb/src/common/tusb_fifo.c **** 
 721:tinyusb/src/common/tusb_fifo.c ****     @returns number of items read from the FIFO
 722:tinyusb/src/common/tusb_fifo.c ****  */
 723:tinyusb/src/common/tusb_fifo.c **** /******************************************************************************/
 724:tinyusb/src/common/tusb_fifo.c **** uint16_t tu_fifo_read_n(tu_fifo_t* f, void * buffer, uint16_t n)
 725:tinyusb/src/common/tusb_fifo.c **** {
 2139              		.loc 1 725 1 is_stmt 1 view -0
 2140              		.cfi_startproc
 2141              		@ args = 0, pretend = 0, frame = 0
 2142              		@ frame_needed = 0, uses_anonymous_args = 0
 2143              		.loc 1 725 1 is_stmt 0 view .LVU618
 2144 0000 08B5     		push	{r3, lr}
 2145              	.LCFI27:
 2146              		.cfi_def_cfa_offset 8
 2147              		.cfi_offset 3, -8
 2148              		.cfi_offset 14, -4
 726:tinyusb/src/common/tusb_fifo.c ****   return _tu_fifo_read_n(f, buffer, n, TU_FIFO_COPY_INC);
 2149              		.loc 1 726 3 is_stmt 1 view .LVU619
 2150              		.loc 1 726 10 is_stmt 0 view .LVU620
 2151 0002 0023     		movs	r3, #0
 2152 0004 FFF7FEFF 		bl	_tu_fifo_read_n
 2153              	.LVL270:
 727:tinyusb/src/common/tusb_fifo.c **** }
 2154              		.loc 1 727 1 view .LVU621
 2155 0008 08BD     		pop	{r3, pc}
 2156              		.cfi_endproc
 2157              	.LFE81:
 2159              		.section	.text.tu_fifo_read_n_const_addr_full_words,"ax",%progbits
 2160              		.align	1
 2161              		.global	tu_fifo_read_n_const_addr_full_words
 2162              		.syntax unified
 2163              		.thumb
 2164              		.thumb_func
 2165              		.fpu fpv4-sp-d16
 2167              	tu_fifo_read_n_const_addr_full_words:
 2168              	.LVL271:
 2169              	.LFB82:
 728:tinyusb/src/common/tusb_fifo.c **** 
 729:tinyusb/src/common/tusb_fifo.c **** uint16_t tu_fifo_read_n_const_addr_full_words(tu_fifo_t* f, void * buffer, uint16_t n)
 730:tinyusb/src/common/tusb_fifo.c **** {
 2170              		.loc 1 730 1 is_stmt 1 view -0
 2171              		.cfi_startproc
 2172              		@ args = 0, pretend = 0, frame = 0
 2173              		@ frame_needed = 0, uses_anonymous_args = 0
 2174              		.loc 1 730 1 is_stmt 0 view .LVU623
 2175 0000 08B5     		push	{r3, lr}
 2176              	.LCFI28:
 2177              		.cfi_def_cfa_offset 8
 2178              		.cfi_offset 3, -8
 2179              		.cfi_offset 14, -4
 731:tinyusb/src/common/tusb_fifo.c ****   return _tu_fifo_read_n(f, buffer, n, TU_FIFO_COPY_CST_FULL_WORDS);
 2180              		.loc 1 731 3 is_stmt 1 view .LVU624
 2181              		.loc 1 731 10 is_stmt 0 view .LVU625
ARM GAS  /tmp/cc5fbsfm.s 			page 65


 2182 0002 0123     		movs	r3, #1
 2183 0004 FFF7FEFF 		bl	_tu_fifo_read_n
 2184              	.LVL272:
 732:tinyusb/src/common/tusb_fifo.c **** }
 2185              		.loc 1 732 1 view .LVU626
 2186 0008 08BD     		pop	{r3, pc}
 2187              		.cfi_endproc
 2188              	.LFE82:
 2190              		.section	.text.tu_fifo_peek,"ax",%progbits
 2191              		.align	1
 2192              		.global	tu_fifo_peek
 2193              		.syntax unified
 2194              		.thumb
 2195              		.thumb_func
 2196              		.fpu fpv4-sp-d16
 2198              	tu_fifo_peek:
 2199              	.LVL273:
 2200              	.LFB83:
 733:tinyusb/src/common/tusb_fifo.c **** 
 734:tinyusb/src/common/tusb_fifo.c **** /******************************************************************************/
 735:tinyusb/src/common/tusb_fifo.c **** /*!
 736:tinyusb/src/common/tusb_fifo.c ****     @brief Read one item without removing it from the FIFO.
 737:tinyusb/src/common/tusb_fifo.c ****     This function checks for an overflow and corrects read pointer if required.
 738:tinyusb/src/common/tusb_fifo.c **** 
 739:tinyusb/src/common/tusb_fifo.c ****     @param[in]  f
 740:tinyusb/src/common/tusb_fifo.c ****                 Pointer to the FIFO buffer to manipulate
 741:tinyusb/src/common/tusb_fifo.c ****     @param[in]  p_buffer
 742:tinyusb/src/common/tusb_fifo.c ****                 Pointer to the place holder for data read from the buffer
 743:tinyusb/src/common/tusb_fifo.c **** 
 744:tinyusb/src/common/tusb_fifo.c ****     @returns TRUE if the queue is not empty
 745:tinyusb/src/common/tusb_fifo.c ****  */
 746:tinyusb/src/common/tusb_fifo.c **** /******************************************************************************/
 747:tinyusb/src/common/tusb_fifo.c **** bool tu_fifo_peek(tu_fifo_t* f, void * p_buffer)
 748:tinyusb/src/common/tusb_fifo.c **** {
 2201              		.loc 1 748 1 is_stmt 1 view -0
 2202              		.cfi_startproc
 2203              		@ args = 0, pretend = 0, frame = 0
 2204              		@ frame_needed = 0, uses_anonymous_args = 0
 2205              		.loc 1 748 1 is_stmt 0 view .LVU628
 2206 0000 08B5     		push	{r3, lr}
 2207              	.LCFI29:
 2208              		.cfi_def_cfa_offset 8
 2209              		.cfi_offset 3, -8
 2210              		.cfi_offset 14, -4
 749:tinyusb/src/common/tusb_fifo.c ****   _ff_lock(f->mutex_rd);
 2211              		.loc 1 749 24 is_stmt 1 view .LVU629
 750:tinyusb/src/common/tusb_fifo.c ****   bool ret = _tu_fifo_peek(f, p_buffer, f->wr_idx, f->rd_idx);
 2212              		.loc 1 750 3 view .LVU630
 2213              		.loc 1 750 14 is_stmt 0 view .LVU631
 2214 0002 0289     		ldrh	r2, [r0, #8]
 2215 0004 4389     		ldrh	r3, [r0, #10]
 2216 0006 9BB2     		uxth	r3, r3
 2217 0008 92B2     		uxth	r2, r2
 2218 000a FFF7FEFF 		bl	_tu_fifo_peek
 2219              	.LVL274:
 751:tinyusb/src/common/tusb_fifo.c ****   _ff_unlock(f->mutex_rd);
 2220              		.loc 1 751 26 is_stmt 1 view .LVU632
ARM GAS  /tmp/cc5fbsfm.s 			page 66


 752:tinyusb/src/common/tusb_fifo.c ****   return ret;
 2221              		.loc 1 752 3 view .LVU633
 753:tinyusb/src/common/tusb_fifo.c **** }
 2222              		.loc 1 753 1 is_stmt 0 view .LVU634
 2223 000e 08BD     		pop	{r3, pc}
 2224              		.cfi_endproc
 2225              	.LFE83:
 2227              		.section	.text.tu_fifo_peek_n,"ax",%progbits
 2228              		.align	1
 2229              		.global	tu_fifo_peek_n
 2230              		.syntax unified
 2231              		.thumb
 2232              		.thumb_func
 2233              		.fpu fpv4-sp-d16
 2235              	tu_fifo_peek_n:
 2236              	.LVL275:
 2237              	.LFB84:
 754:tinyusb/src/common/tusb_fifo.c **** 
 755:tinyusb/src/common/tusb_fifo.c **** /******************************************************************************/
 756:tinyusb/src/common/tusb_fifo.c **** /*!
 757:tinyusb/src/common/tusb_fifo.c ****     @brief Read n items without removing it from the FIFO
 758:tinyusb/src/common/tusb_fifo.c ****     This function checks for an overflow and corrects read pointer if required.
 759:tinyusb/src/common/tusb_fifo.c **** 
 760:tinyusb/src/common/tusb_fifo.c ****     @param[in]  f
 761:tinyusb/src/common/tusb_fifo.c ****                 Pointer to the FIFO buffer to manipulate
 762:tinyusb/src/common/tusb_fifo.c ****     @param[in]  p_buffer
 763:tinyusb/src/common/tusb_fifo.c ****                 Pointer to the place holder for data read from the buffer
 764:tinyusb/src/common/tusb_fifo.c ****     @param[in]  n
 765:tinyusb/src/common/tusb_fifo.c ****                 Number of items to peek
 766:tinyusb/src/common/tusb_fifo.c **** 
 767:tinyusb/src/common/tusb_fifo.c ****     @returns Number of bytes written to p_buffer
 768:tinyusb/src/common/tusb_fifo.c ****  */
 769:tinyusb/src/common/tusb_fifo.c **** /******************************************************************************/
 770:tinyusb/src/common/tusb_fifo.c **** uint16_t tu_fifo_peek_n(tu_fifo_t* f, void * p_buffer, uint16_t n)
 771:tinyusb/src/common/tusb_fifo.c **** {
 2238              		.loc 1 771 1 is_stmt 1 view -0
 2239              		.cfi_startproc
 2240              		@ args = 0, pretend = 0, frame = 0
 2241              		@ frame_needed = 0, uses_anonymous_args = 0
 2242              		.loc 1 771 1 is_stmt 0 view .LVU636
 2243 0000 30B5     		push	{r4, r5, lr}
 2244              	.LCFI30:
 2245              		.cfi_def_cfa_offset 12
 2246              		.cfi_offset 4, -12
 2247              		.cfi_offset 5, -8
 2248              		.cfi_offset 14, -4
 2249 0002 83B0     		sub	sp, sp, #12
 2250              	.LCFI31:
 2251              		.cfi_def_cfa_offset 24
 772:tinyusb/src/common/tusb_fifo.c ****   _ff_lock(f->mutex_rd);
 2252              		.loc 1 772 24 is_stmt 1 view .LVU637
 773:tinyusb/src/common/tusb_fifo.c ****   uint16_t ret = _tu_fifo_peek_n(f, p_buffer, n, f->wr_idx, f->rd_idx, TU_FIFO_COPY_INC);
 2253              		.loc 1 773 3 view .LVU638
 2254              		.loc 1 773 18 is_stmt 0 view .LVU639
 2255 0004 0389     		ldrh	r3, [r0, #8]
 2256 0006 4489     		ldrh	r4, [r0, #10]
 2257 0008 A4B2     		uxth	r4, r4
ARM GAS  /tmp/cc5fbsfm.s 			page 67


 2258 000a 0025     		movs	r5, #0
 2259 000c 0195     		str	r5, [sp, #4]
 2260 000e 0094     		str	r4, [sp]
 2261 0010 9BB2     		uxth	r3, r3
 2262 0012 FFF7FEFF 		bl	_tu_fifo_peek_n
 2263              	.LVL276:
 774:tinyusb/src/common/tusb_fifo.c ****   _ff_unlock(f->mutex_rd);
 2264              		.loc 1 774 26 is_stmt 1 view .LVU640
 775:tinyusb/src/common/tusb_fifo.c ****   return ret;
 2265              		.loc 1 775 3 view .LVU641
 776:tinyusb/src/common/tusb_fifo.c **** }
 2266              		.loc 1 776 1 is_stmt 0 view .LVU642
 2267 0016 03B0     		add	sp, sp, #12
 2268              	.LCFI32:
 2269              		.cfi_def_cfa_offset 12
 2270              		@ sp needed
 2271 0018 30BD     		pop	{r4, r5, pc}
 2272              		.cfi_endproc
 2273              	.LFE84:
 2275              		.section	.text.tu_fifo_write,"ax",%progbits
 2276              		.align	1
 2277              		.global	tu_fifo_write
 2278              		.syntax unified
 2279              		.thumb
 2280              		.thumb_func
 2281              		.fpu fpv4-sp-d16
 2283              	tu_fifo_write:
 2284              	.LVL277:
 2285              	.LFB85:
 777:tinyusb/src/common/tusb_fifo.c **** 
 778:tinyusb/src/common/tusb_fifo.c **** /******************************************************************************/
 779:tinyusb/src/common/tusb_fifo.c **** /*!
 780:tinyusb/src/common/tusb_fifo.c ****     @brief Write one element into the buffer.
 781:tinyusb/src/common/tusb_fifo.c **** 
 782:tinyusb/src/common/tusb_fifo.c ****     This function will write one element into the array index specified by
 783:tinyusb/src/common/tusb_fifo.c ****     the write pointer and increment the write index.
 784:tinyusb/src/common/tusb_fifo.c **** 
 785:tinyusb/src/common/tusb_fifo.c ****     @param[in]  f
 786:tinyusb/src/common/tusb_fifo.c ****                 Pointer to the FIFO buffer to manipulate
 787:tinyusb/src/common/tusb_fifo.c ****     @param[in]  data
 788:tinyusb/src/common/tusb_fifo.c ****                 The byte to add to the FIFO
 789:tinyusb/src/common/tusb_fifo.c **** 
 790:tinyusb/src/common/tusb_fifo.c ****     @returns TRUE if the data was written to the FIFO (overwrittable
 791:tinyusb/src/common/tusb_fifo.c ****              FIFO will always return TRUE)
 792:tinyusb/src/common/tusb_fifo.c ****  */
 793:tinyusb/src/common/tusb_fifo.c **** /******************************************************************************/
 794:tinyusb/src/common/tusb_fifo.c **** bool tu_fifo_write(tu_fifo_t* f, const void * data)
 795:tinyusb/src/common/tusb_fifo.c **** {
 2286              		.loc 1 795 1 is_stmt 1 view -0
 2287              		.cfi_startproc
 2288              		@ args = 0, pretend = 0, frame = 0
 2289              		@ frame_needed = 0, uses_anonymous_args = 0
 2290              		.loc 1 795 1 is_stmt 0 view .LVU644
 2291 0000 70B5     		push	{r4, r5, r6, lr}
 2292              	.LCFI33:
 2293              		.cfi_def_cfa_offset 16
 2294              		.cfi_offset 4, -16
ARM GAS  /tmp/cc5fbsfm.s 			page 68


 2295              		.cfi_offset 5, -12
 2296              		.cfi_offset 6, -8
 2297              		.cfi_offset 14, -4
 2298 0002 0446     		mov	r4, r0
 2299 0004 0E46     		mov	r6, r1
 796:tinyusb/src/common/tusb_fifo.c ****   _ff_lock(f->mutex_wr);
 2300              		.loc 1 796 24 is_stmt 1 view .LVU645
 797:tinyusb/src/common/tusb_fifo.c **** 
 798:tinyusb/src/common/tusb_fifo.c ****   bool ret;
 2301              		.loc 1 798 3 view .LVU646
 799:tinyusb/src/common/tusb_fifo.c ****   uint16_t const wr_idx = f->wr_idx;
 2302              		.loc 1 799 3 view .LVU647
 2303              		.loc 1 799 18 is_stmt 0 view .LVU648
 2304 0006 0589     		ldrh	r5, [r0, #8]
 2305 0008 ADB2     		uxth	r5, r5
 2306              	.LVL278:
 800:tinyusb/src/common/tusb_fifo.c **** 
 801:tinyusb/src/common/tusb_fifo.c ****   if ( tu_fifo_full(f) && !f->overwritable )
 2307              		.loc 1 801 3 is_stmt 1 view .LVU649
 2308              		.loc 1 801 8 is_stmt 0 view .LVU650
 2309 000a FFF7FEFF 		bl	tu_fifo_full
 2310              	.LVL279:
 2311              		.loc 1 801 6 view .LVU651
 2312 000e 10B1     		cbz	r0, .L115
 2313              		.loc 1 801 29 discriminator 1 view .LVU652
 2314 0010 E079     		ldrb	r0, [r4, #7]	@ zero_extendqisi2
 2315              		.loc 1 801 24 discriminator 1 view .LVU653
 2316 0012 C009     		lsrs	r0, r0, #7
 2317 0014 16D0     		beq	.L116
 2318              	.L115:
 2319              	.LBB181:
 802:tinyusb/src/common/tusb_fifo.c ****   {
 803:tinyusb/src/common/tusb_fifo.c ****     ret = false;
 804:tinyusb/src/common/tusb_fifo.c ****   }else
 805:tinyusb/src/common/tusb_fifo.c ****   {
 806:tinyusb/src/common/tusb_fifo.c ****     uint16_t wr_ptr = idx2ptr(f->depth, wr_idx);
 2320              		.loc 1 806 5 is_stmt 1 view .LVU654
 2321              		.loc 1 806 23 is_stmt 0 view .LVU655
 2322 0016 A288     		ldrh	r2, [r4, #4]
 2323              	.LVL280:
 2324              	.LBB182:
 2325              	.LBI182:
 385:tinyusb/src/common/tusb_fifo.c **** {
 2326              		.loc 1 385 10 is_stmt 1 view .LVU656
 2327              	.LBB183:
 388:tinyusb/src/common/tusb_fifo.c ****   return idx;
 2328              		.loc 1 388 3 view .LVU657
 388:tinyusb/src/common/tusb_fifo.c ****   return idx;
 2329              		.loc 1 388 9 is_stmt 0 view .LVU658
 2330 0018 2B46     		mov	r3, r5
 2331 001a 01E0     		b	.L117
 2332              	.LVL281:
 2333              	.L118:
 388:tinyusb/src/common/tusb_fifo.c ****   return idx;
 2334              		.loc 1 388 26 is_stmt 1 view .LVU659
 388:tinyusb/src/common/tusb_fifo.c ****   return idx;
 2335              		.loc 1 388 30 is_stmt 0 view .LVU660
ARM GAS  /tmp/cc5fbsfm.s 			page 69


 2336 001c 9B1A     		subs	r3, r3, r2
 2337              	.LVL282:
 388:tinyusb/src/common/tusb_fifo.c ****   return idx;
 2338              		.loc 1 388 30 view .LVU661
 2339 001e 9BB2     		uxth	r3, r3
 2340              	.LVL283:
 2341              	.L117:
 388:tinyusb/src/common/tusb_fifo.c ****   return idx;
 2342              		.loc 1 388 9 is_stmt 1 view .LVU662
 2343 0020 9A42     		cmp	r2, r3
 2344 0022 FBD9     		bls	.L118
 389:tinyusb/src/common/tusb_fifo.c **** }
 2345              		.loc 1 389 3 view .LVU663
 2346              	.LVL284:
 389:tinyusb/src/common/tusb_fifo.c **** }
 2347              		.loc 1 389 3 is_stmt 0 view .LVU664
 2348              	.LBE183:
 2349              	.LBE182:
 807:tinyusb/src/common/tusb_fifo.c **** 
 808:tinyusb/src/common/tusb_fifo.c ****     // Write data
 809:tinyusb/src/common/tusb_fifo.c ****     _ff_push(f, data, wr_ptr);
 2350              		.loc 1 809 5 is_stmt 1 view .LVU665
 2351              	.LBB184:
 2352              	.LBI184:
 145:tinyusb/src/common/tusb_fifo.c **** {
 2353              		.loc 1 145 20 view .LVU666
 2354              	.LBB185:
 147:tinyusb/src/common/tusb_fifo.c **** }
 2355              		.loc 1 147 3 view .LVU667
 147:tinyusb/src/common/tusb_fifo.c **** }
 2356              		.loc 1 147 11 is_stmt 0 view .LVU668
 2357 0024 2068     		ldr	r0, [r4]
 147:tinyusb/src/common/tusb_fifo.c **** }
 2358              		.loc 1 147 30 view .LVU669
 2359 0026 E288     		ldrh	r2, [r4, #6]
 2360 0028 C2F30E02 		ubfx	r2, r2, #0, #15
 147:tinyusb/src/common/tusb_fifo.c **** }
 2361              		.loc 1 147 3 view .LVU670
 2362 002c 3146     		mov	r1, r6
 2363 002e 02FB0300 		mla	r0, r2, r3, r0
 2364 0032 FFF7FEFF 		bl	memcpy
 2365              	.LVL285:
 147:tinyusb/src/common/tusb_fifo.c **** }
 2366              		.loc 1 147 3 view .LVU671
 2367              	.LBE185:
 2368              	.LBE184:
 810:tinyusb/src/common/tusb_fifo.c **** 
 811:tinyusb/src/common/tusb_fifo.c ****     // Advance pointer
 812:tinyusb/src/common/tusb_fifo.c ****     f->wr_idx = advance_index(f->depth, wr_idx, 1);
 2369              		.loc 1 812 5 is_stmt 1 view .LVU672
 2370              		.loc 1 812 17 is_stmt 0 view .LVU673
 2371 0036 0122     		movs	r2, #1
 2372 0038 2946     		mov	r1, r5
 2373 003a A088     		ldrh	r0, [r4, #4]
 2374 003c FFF7FEFF 		bl	advance_index
 2375              	.LVL286:
 2376              		.loc 1 812 15 view .LVU674
ARM GAS  /tmp/cc5fbsfm.s 			page 70


 2377 0040 2081     		strh	r0, [r4, #8]	@ movhi
 813:tinyusb/src/common/tusb_fifo.c **** 
 814:tinyusb/src/common/tusb_fifo.c ****     ret = true;
 2378              		.loc 1 814 5 is_stmt 1 view .LVU675
 2379              	.LVL287:
 2380              		.loc 1 814 9 is_stmt 0 view .LVU676
 2381 0042 0120     		movs	r0, #1
 2382              	.LVL288:
 2383              	.L116:
 2384              		.loc 1 814 9 view .LVU677
 2385              	.LBE181:
 815:tinyusb/src/common/tusb_fifo.c ****   }
 816:tinyusb/src/common/tusb_fifo.c **** 
 817:tinyusb/src/common/tusb_fifo.c ****   _ff_unlock(f->mutex_wr);
 2386              		.loc 1 817 26 is_stmt 1 view .LVU678
 818:tinyusb/src/common/tusb_fifo.c **** 
 819:tinyusb/src/common/tusb_fifo.c ****   return ret;
 2387              		.loc 1 819 3 view .LVU679
 820:tinyusb/src/common/tusb_fifo.c **** }
 2388              		.loc 1 820 1 is_stmt 0 view .LVU680
 2389 0044 70BD     		pop	{r4, r5, r6, pc}
 2390              		.loc 1 820 1 view .LVU681
 2391              		.cfi_endproc
 2392              	.LFE85:
 2394              		.section	.text.tu_fifo_write_n,"ax",%progbits
 2395              		.align	1
 2396              		.global	tu_fifo_write_n
 2397              		.syntax unified
 2398              		.thumb
 2399              		.thumb_func
 2400              		.fpu fpv4-sp-d16
 2402              	tu_fifo_write_n:
 2403              	.LVL289:
 2404              	.LFB86:
 821:tinyusb/src/common/tusb_fifo.c **** 
 822:tinyusb/src/common/tusb_fifo.c **** /******************************************************************************/
 823:tinyusb/src/common/tusb_fifo.c **** /*!
 824:tinyusb/src/common/tusb_fifo.c ****     @brief This function will write n elements into the array index specified by
 825:tinyusb/src/common/tusb_fifo.c ****     the write pointer and increment the write index.
 826:tinyusb/src/common/tusb_fifo.c **** 
 827:tinyusb/src/common/tusb_fifo.c ****     @param[in]  f
 828:tinyusb/src/common/tusb_fifo.c ****                 Pointer to the FIFO buffer to manipulate
 829:tinyusb/src/common/tusb_fifo.c ****     @param[in]  data
 830:tinyusb/src/common/tusb_fifo.c ****                 The pointer to data to add to the FIFO
 831:tinyusb/src/common/tusb_fifo.c ****     @param[in]  count
 832:tinyusb/src/common/tusb_fifo.c ****                 Number of element
 833:tinyusb/src/common/tusb_fifo.c ****     @return Number of written elements
 834:tinyusb/src/common/tusb_fifo.c ****  */
 835:tinyusb/src/common/tusb_fifo.c **** /******************************************************************************/
 836:tinyusb/src/common/tusb_fifo.c **** uint16_t tu_fifo_write_n(tu_fifo_t* f, const void * data, uint16_t n)
 837:tinyusb/src/common/tusb_fifo.c **** {
 2405              		.loc 1 837 1 is_stmt 1 view -0
 2406              		.cfi_startproc
 2407              		@ args = 0, pretend = 0, frame = 0
 2408              		@ frame_needed = 0, uses_anonymous_args = 0
 2409              		.loc 1 837 1 is_stmt 0 view .LVU683
 2410 0000 08B5     		push	{r3, lr}
ARM GAS  /tmp/cc5fbsfm.s 			page 71


 2411              	.LCFI34:
 2412              		.cfi_def_cfa_offset 8
 2413              		.cfi_offset 3, -8
 2414              		.cfi_offset 14, -4
 838:tinyusb/src/common/tusb_fifo.c ****   return _tu_fifo_write_n(f, data, n, TU_FIFO_COPY_INC);
 2415              		.loc 1 838 3 is_stmt 1 view .LVU684
 2416              		.loc 1 838 10 is_stmt 0 view .LVU685
 2417 0002 0023     		movs	r3, #0
 2418 0004 FFF7FEFF 		bl	_tu_fifo_write_n
 2419              	.LVL290:
 839:tinyusb/src/common/tusb_fifo.c **** }
 2420              		.loc 1 839 1 view .LVU686
 2421 0008 08BD     		pop	{r3, pc}
 2422              		.cfi_endproc
 2423              	.LFE86:
 2425              		.section	.text.tu_fifo_write_n_const_addr_full_words,"ax",%progbits
 2426              		.align	1
 2427              		.global	tu_fifo_write_n_const_addr_full_words
 2428              		.syntax unified
 2429              		.thumb
 2430              		.thumb_func
 2431              		.fpu fpv4-sp-d16
 2433              	tu_fifo_write_n_const_addr_full_words:
 2434              	.LVL291:
 2435              	.LFB87:
 840:tinyusb/src/common/tusb_fifo.c **** 
 841:tinyusb/src/common/tusb_fifo.c **** /******************************************************************************/
 842:tinyusb/src/common/tusb_fifo.c **** /*!
 843:tinyusb/src/common/tusb_fifo.c ****     @brief This function will write n elements into the array index specified by
 844:tinyusb/src/common/tusb_fifo.c ****     the write pointer and increment the write index. The source address will
 845:tinyusb/src/common/tusb_fifo.c ****     not be incremented which is useful for reading from registers.
 846:tinyusb/src/common/tusb_fifo.c **** 
 847:tinyusb/src/common/tusb_fifo.c ****     @param[in]  f
 848:tinyusb/src/common/tusb_fifo.c ****                 Pointer to the FIFO buffer to manipulate
 849:tinyusb/src/common/tusb_fifo.c ****     @param[in]  data
 850:tinyusb/src/common/tusb_fifo.c ****                 The pointer to data to add to the FIFO
 851:tinyusb/src/common/tusb_fifo.c ****     @param[in]  count
 852:tinyusb/src/common/tusb_fifo.c ****                 Number of element
 853:tinyusb/src/common/tusb_fifo.c ****     @return Number of written elements
 854:tinyusb/src/common/tusb_fifo.c ****  */
 855:tinyusb/src/common/tusb_fifo.c **** /******************************************************************************/
 856:tinyusb/src/common/tusb_fifo.c **** uint16_t tu_fifo_write_n_const_addr_full_words(tu_fifo_t* f, const void * data, uint16_t n)
 857:tinyusb/src/common/tusb_fifo.c **** {
 2436              		.loc 1 857 1 is_stmt 1 view -0
 2437              		.cfi_startproc
 2438              		@ args = 0, pretend = 0, frame = 0
 2439              		@ frame_needed = 0, uses_anonymous_args = 0
 2440              		.loc 1 857 1 is_stmt 0 view .LVU688
 2441 0000 08B5     		push	{r3, lr}
 2442              	.LCFI35:
 2443              		.cfi_def_cfa_offset 8
 2444              		.cfi_offset 3, -8
 2445              		.cfi_offset 14, -4
 858:tinyusb/src/common/tusb_fifo.c ****   return _tu_fifo_write_n(f, data, n, TU_FIFO_COPY_CST_FULL_WORDS);
 2446              		.loc 1 858 3 is_stmt 1 view .LVU689
 2447              		.loc 1 858 10 is_stmt 0 view .LVU690
 2448 0002 0123     		movs	r3, #1
ARM GAS  /tmp/cc5fbsfm.s 			page 72


 2449 0004 FFF7FEFF 		bl	_tu_fifo_write_n
 2450              	.LVL292:
 859:tinyusb/src/common/tusb_fifo.c **** }
 2451              		.loc 1 859 1 view .LVU691
 2452 0008 08BD     		pop	{r3, pc}
 2453              		.cfi_endproc
 2454              	.LFE87:
 2456              		.section	.text.tu_fifo_clear,"ax",%progbits
 2457              		.align	1
 2458              		.global	tu_fifo_clear
 2459              		.syntax unified
 2460              		.thumb
 2461              		.thumb_func
 2462              		.fpu fpv4-sp-d16
 2464              	tu_fifo_clear:
 2465              	.LVL293:
 2466              	.LFB88:
 860:tinyusb/src/common/tusb_fifo.c **** 
 861:tinyusb/src/common/tusb_fifo.c **** /******************************************************************************/
 862:tinyusb/src/common/tusb_fifo.c **** /*!
 863:tinyusb/src/common/tusb_fifo.c ****     @brief Clear the fifo read and write pointers
 864:tinyusb/src/common/tusb_fifo.c **** 
 865:tinyusb/src/common/tusb_fifo.c ****     @param[in]  f
 866:tinyusb/src/common/tusb_fifo.c ****                 Pointer to the FIFO buffer to manipulate
 867:tinyusb/src/common/tusb_fifo.c ****  */
 868:tinyusb/src/common/tusb_fifo.c **** /******************************************************************************/
 869:tinyusb/src/common/tusb_fifo.c **** bool tu_fifo_clear(tu_fifo_t *f)
 870:tinyusb/src/common/tusb_fifo.c **** {
 2467              		.loc 1 870 1 is_stmt 1 view -0
 2468              		.cfi_startproc
 2469              		@ args = 0, pretend = 0, frame = 0
 2470              		@ frame_needed = 0, uses_anonymous_args = 0
 2471              		@ link register save eliminated.
 871:tinyusb/src/common/tusb_fifo.c ****   _ff_lock(f->mutex_wr);
 2472              		.loc 1 871 24 view .LVU693
 872:tinyusb/src/common/tusb_fifo.c ****   _ff_lock(f->mutex_rd);
 2473              		.loc 1 872 24 view .LVU694
 873:tinyusb/src/common/tusb_fifo.c **** 
 874:tinyusb/src/common/tusb_fifo.c ****   f->rd_idx = 0;
 2474              		.loc 1 874 3 view .LVU695
 2475              		.loc 1 874 13 is_stmt 0 view .LVU696
 2476 0000 0023     		movs	r3, #0
 2477 0002 4381     		strh	r3, [r0, #10]	@ movhi
 875:tinyusb/src/common/tusb_fifo.c ****   f->wr_idx = 0;
 2478              		.loc 1 875 3 is_stmt 1 view .LVU697
 2479              		.loc 1 875 13 is_stmt 0 view .LVU698
 2480 0004 0381     		strh	r3, [r0, #8]	@ movhi
 876:tinyusb/src/common/tusb_fifo.c **** 
 877:tinyusb/src/common/tusb_fifo.c ****   _ff_unlock(f->mutex_wr);
 2481              		.loc 1 877 26 is_stmt 1 view .LVU699
 878:tinyusb/src/common/tusb_fifo.c ****   _ff_unlock(f->mutex_rd);
 2482              		.loc 1 878 26 view .LVU700
 879:tinyusb/src/common/tusb_fifo.c ****   return true;
 2483              		.loc 1 879 3 view .LVU701
 880:tinyusb/src/common/tusb_fifo.c **** }
 2484              		.loc 1 880 1 is_stmt 0 view .LVU702
 2485 0006 0120     		movs	r0, #1
ARM GAS  /tmp/cc5fbsfm.s 			page 73


 2486              	.LVL294:
 2487              		.loc 1 880 1 view .LVU703
 2488 0008 7047     		bx	lr
 2489              		.cfi_endproc
 2490              	.LFE88:
 2492              		.section	.text.tu_fifo_set_overwritable,"ax",%progbits
 2493              		.align	1
 2494              		.global	tu_fifo_set_overwritable
 2495              		.syntax unified
 2496              		.thumb
 2497              		.thumb_func
 2498              		.fpu fpv4-sp-d16
 2500              	tu_fifo_set_overwritable:
 2501              	.LVL295:
 2502              	.LFB89:
 881:tinyusb/src/common/tusb_fifo.c **** 
 882:tinyusb/src/common/tusb_fifo.c **** /******************************************************************************/
 883:tinyusb/src/common/tusb_fifo.c **** /*!
 884:tinyusb/src/common/tusb_fifo.c ****     @brief Change the fifo mode to overwritable or not overwritable
 885:tinyusb/src/common/tusb_fifo.c **** 
 886:tinyusb/src/common/tusb_fifo.c ****     @param[in]  f
 887:tinyusb/src/common/tusb_fifo.c ****                 Pointer to the FIFO buffer to manipulate
 888:tinyusb/src/common/tusb_fifo.c ****     @param[in]  overwritable
 889:tinyusb/src/common/tusb_fifo.c ****                 Overwritable mode the fifo is set to
 890:tinyusb/src/common/tusb_fifo.c ****  */
 891:tinyusb/src/common/tusb_fifo.c **** /******************************************************************************/
 892:tinyusb/src/common/tusb_fifo.c **** bool tu_fifo_set_overwritable(tu_fifo_t *f, bool overwritable)
 893:tinyusb/src/common/tusb_fifo.c **** {
 2503              		.loc 1 893 1 is_stmt 1 view -0
 2504              		.cfi_startproc
 2505              		@ args = 0, pretend = 0, frame = 0
 2506              		@ frame_needed = 0, uses_anonymous_args = 0
 2507              		@ link register save eliminated.
 894:tinyusb/src/common/tusb_fifo.c ****   _ff_lock(f->mutex_wr);
 2508              		.loc 1 894 24 view .LVU705
 895:tinyusb/src/common/tusb_fifo.c ****   _ff_lock(f->mutex_rd);
 2509              		.loc 1 895 24 view .LVU706
 896:tinyusb/src/common/tusb_fifo.c **** 
 897:tinyusb/src/common/tusb_fifo.c ****   f->overwritable = overwritable;
 2510              		.loc 1 897 3 view .LVU707
 2511              		.loc 1 897 19 is_stmt 0 view .LVU708
 2512 0000 C379     		ldrb	r3, [r0, #7]	@ zero_extendqisi2
 2513 0002 61F3C713 		bfi	r3, r1, #7, #1
 2514              	.LVL296:
 2515              		.loc 1 897 19 view .LVU709
 2516 0006 C371     		strb	r3, [r0, #7]
 898:tinyusb/src/common/tusb_fifo.c **** 
 899:tinyusb/src/common/tusb_fifo.c ****   _ff_unlock(f->mutex_wr);
 2517              		.loc 1 899 26 is_stmt 1 view .LVU710
 900:tinyusb/src/common/tusb_fifo.c ****   _ff_unlock(f->mutex_rd);
 2518              		.loc 1 900 26 view .LVU711
 901:tinyusb/src/common/tusb_fifo.c **** 
 902:tinyusb/src/common/tusb_fifo.c ****   return true;
 2519              		.loc 1 902 3 view .LVU712
 903:tinyusb/src/common/tusb_fifo.c **** }
 2520              		.loc 1 903 1 is_stmt 0 view .LVU713
 2521 0008 0120     		movs	r0, #1
ARM GAS  /tmp/cc5fbsfm.s 			page 74


 2522              	.LVL297:
 2523              		.loc 1 903 1 view .LVU714
 2524 000a 7047     		bx	lr
 2525              		.cfi_endproc
 2526              	.LFE89:
 2528              		.section	.text.tu_fifo_advance_write_pointer,"ax",%progbits
 2529              		.align	1
 2530              		.global	tu_fifo_advance_write_pointer
 2531              		.syntax unified
 2532              		.thumb
 2533              		.thumb_func
 2534              		.fpu fpv4-sp-d16
 2536              	tu_fifo_advance_write_pointer:
 2537              	.LVL298:
 2538              	.LFB90:
 904:tinyusb/src/common/tusb_fifo.c **** 
 905:tinyusb/src/common/tusb_fifo.c **** /******************************************************************************/
 906:tinyusb/src/common/tusb_fifo.c **** /*!
 907:tinyusb/src/common/tusb_fifo.c ****     @brief Advance write pointer - intended to be used in combination with DMA.
 908:tinyusb/src/common/tusb_fifo.c ****     It is possible to fill the FIFO by use of a DMA in circular mode. Within
 909:tinyusb/src/common/tusb_fifo.c ****     DMA ISRs you may update the write pointer to be able to read from the FIFO.
 910:tinyusb/src/common/tusb_fifo.c ****     As long as the DMA is the only process writing into the FIFO this is safe
 911:tinyusb/src/common/tusb_fifo.c ****     to use.
 912:tinyusb/src/common/tusb_fifo.c **** 
 913:tinyusb/src/common/tusb_fifo.c ****     USE WITH CARE - WE DO NOT CONDUCT SAFETY CHECKS HERE!
 914:tinyusb/src/common/tusb_fifo.c **** 
 915:tinyusb/src/common/tusb_fifo.c ****     @param[in]  f
 916:tinyusb/src/common/tusb_fifo.c ****                 Pointer to the FIFO buffer to manipulate
 917:tinyusb/src/common/tusb_fifo.c ****     @param[in]  n
 918:tinyusb/src/common/tusb_fifo.c ****                 Number of items the write pointer moves forward
 919:tinyusb/src/common/tusb_fifo.c ****  */
 920:tinyusb/src/common/tusb_fifo.c **** /******************************************************************************/
 921:tinyusb/src/common/tusb_fifo.c **** void tu_fifo_advance_write_pointer(tu_fifo_t *f, uint16_t n)
 922:tinyusb/src/common/tusb_fifo.c **** {
 2539              		.loc 1 922 1 is_stmt 1 view -0
 2540              		.cfi_startproc
 2541              		@ args = 0, pretend = 0, frame = 0
 2542              		@ frame_needed = 0, uses_anonymous_args = 0
 2543              		.loc 1 922 1 is_stmt 0 view .LVU716
 2544 0000 10B5     		push	{r4, lr}
 2545              	.LCFI36:
 2546              		.cfi_def_cfa_offset 8
 2547              		.cfi_offset 4, -8
 2548              		.cfi_offset 14, -4
 2549 0002 0446     		mov	r4, r0
 2550 0004 0A46     		mov	r2, r1
 923:tinyusb/src/common/tusb_fifo.c ****   f->wr_idx = advance_index(f->depth, f->wr_idx, n);
 2551              		.loc 1 923 3 is_stmt 1 view .LVU717
 2552              		.loc 1 923 15 is_stmt 0 view .LVU718
 2553 0006 0189     		ldrh	r1, [r0, #8]
 2554              	.LVL299:
 2555              		.loc 1 923 15 view .LVU719
 2556 0008 89B2     		uxth	r1, r1
 2557 000a 8088     		ldrh	r0, [r0, #4]
 2558              	.LVL300:
 2559              		.loc 1 923 15 view .LVU720
 2560 000c FFF7FEFF 		bl	advance_index
ARM GAS  /tmp/cc5fbsfm.s 			page 75


 2561              	.LVL301:
 2562              		.loc 1 923 13 view .LVU721
 2563 0010 2081     		strh	r0, [r4, #8]	@ movhi
 924:tinyusb/src/common/tusb_fifo.c **** }
 2564              		.loc 1 924 1 view .LVU722
 2565 0012 10BD     		pop	{r4, pc}
 2566              		.loc 1 924 1 view .LVU723
 2567              		.cfi_endproc
 2568              	.LFE90:
 2570              		.section	.text.tu_fifo_advance_read_pointer,"ax",%progbits
 2571              		.align	1
 2572              		.global	tu_fifo_advance_read_pointer
 2573              		.syntax unified
 2574              		.thumb
 2575              		.thumb_func
 2576              		.fpu fpv4-sp-d16
 2578              	tu_fifo_advance_read_pointer:
 2579              	.LVL302:
 2580              	.LFB91:
 925:tinyusb/src/common/tusb_fifo.c **** 
 926:tinyusb/src/common/tusb_fifo.c **** /******************************************************************************/
 927:tinyusb/src/common/tusb_fifo.c **** /*!
 928:tinyusb/src/common/tusb_fifo.c ****     @brief Advance read pointer - intended to be used in combination with DMA.
 929:tinyusb/src/common/tusb_fifo.c ****     It is possible to read from the FIFO by use of a DMA in linear mode. Within
 930:tinyusb/src/common/tusb_fifo.c ****     DMA ISRs you may update the read pointer to be able to again write into the
 931:tinyusb/src/common/tusb_fifo.c ****     FIFO. As long as the DMA is the only process reading from the FIFO this is
 932:tinyusb/src/common/tusb_fifo.c ****     safe to use.
 933:tinyusb/src/common/tusb_fifo.c **** 
 934:tinyusb/src/common/tusb_fifo.c ****     USE WITH CARE - WE DO NOT CONDUCT SAFETY CHECKS HERE!
 935:tinyusb/src/common/tusb_fifo.c **** 
 936:tinyusb/src/common/tusb_fifo.c ****     @param[in]  f
 937:tinyusb/src/common/tusb_fifo.c ****                 Pointer to the FIFO buffer to manipulate
 938:tinyusb/src/common/tusb_fifo.c ****     @param[in]  n
 939:tinyusb/src/common/tusb_fifo.c ****                 Number of items the read pointer moves forward
 940:tinyusb/src/common/tusb_fifo.c ****  */
 941:tinyusb/src/common/tusb_fifo.c **** /******************************************************************************/
 942:tinyusb/src/common/tusb_fifo.c **** void tu_fifo_advance_read_pointer(tu_fifo_t *f, uint16_t n)
 943:tinyusb/src/common/tusb_fifo.c **** {
 2581              		.loc 1 943 1 is_stmt 1 view -0
 2582              		.cfi_startproc
 2583              		@ args = 0, pretend = 0, frame = 0
 2584              		@ frame_needed = 0, uses_anonymous_args = 0
 2585              		.loc 1 943 1 is_stmt 0 view .LVU725
 2586 0000 10B5     		push	{r4, lr}
 2587              	.LCFI37:
 2588              		.cfi_def_cfa_offset 8
 2589              		.cfi_offset 4, -8
 2590              		.cfi_offset 14, -4
 2591 0002 0446     		mov	r4, r0
 2592 0004 0A46     		mov	r2, r1
 944:tinyusb/src/common/tusb_fifo.c ****   f->rd_idx = advance_index(f->depth, f->rd_idx, n);
 2593              		.loc 1 944 3 is_stmt 1 view .LVU726
 2594              		.loc 1 944 15 is_stmt 0 view .LVU727
 2595 0006 4189     		ldrh	r1, [r0, #10]
 2596              	.LVL303:
 2597              		.loc 1 944 15 view .LVU728
 2598 0008 89B2     		uxth	r1, r1
ARM GAS  /tmp/cc5fbsfm.s 			page 76


 2599 000a 8088     		ldrh	r0, [r0, #4]
 2600              	.LVL304:
 2601              		.loc 1 944 15 view .LVU729
 2602 000c FFF7FEFF 		bl	advance_index
 2603              	.LVL305:
 2604              		.loc 1 944 13 view .LVU730
 2605 0010 6081     		strh	r0, [r4, #10]	@ movhi
 945:tinyusb/src/common/tusb_fifo.c **** }
 2606              		.loc 1 945 1 view .LVU731
 2607 0012 10BD     		pop	{r4, pc}
 2608              		.loc 1 945 1 view .LVU732
 2609              		.cfi_endproc
 2610              	.LFE91:
 2612              		.section	.text.tu_fifo_get_read_info,"ax",%progbits
 2613              		.align	1
 2614              		.global	tu_fifo_get_read_info
 2615              		.syntax unified
 2616              		.thumb
 2617              		.thumb_func
 2618              		.fpu fpv4-sp-d16
 2620              	tu_fifo_get_read_info:
 2621              	.LVL306:
 2622              	.LFB92:
 946:tinyusb/src/common/tusb_fifo.c **** 
 947:tinyusb/src/common/tusb_fifo.c **** /******************************************************************************/
 948:tinyusb/src/common/tusb_fifo.c **** /*!
 949:tinyusb/src/common/tusb_fifo.c ****    @brief Get read info
 950:tinyusb/src/common/tusb_fifo.c **** 
 951:tinyusb/src/common/tusb_fifo.c ****    Returns the length and pointer from which bytes can be read in a linear manner.
 952:tinyusb/src/common/tusb_fifo.c ****    This is of major interest for DMA transmissions. If returned length is zero the
 953:tinyusb/src/common/tusb_fifo.c ****    corresponding pointer is invalid.
 954:tinyusb/src/common/tusb_fifo.c ****    The read pointer does NOT get advanced, use tu_fifo_advance_read_pointer() to
 955:tinyusb/src/common/tusb_fifo.c ****    do so!
 956:tinyusb/src/common/tusb_fifo.c ****    @param[in]       f
 957:tinyusb/src/common/tusb_fifo.c ****                     Pointer to FIFO
 958:tinyusb/src/common/tusb_fifo.c ****    @param[out]      *info
 959:tinyusb/src/common/tusb_fifo.c ****                     Pointer to struct which holds the desired infos
 960:tinyusb/src/common/tusb_fifo.c ****  */
 961:tinyusb/src/common/tusb_fifo.c **** /******************************************************************************/
 962:tinyusb/src/common/tusb_fifo.c **** void tu_fifo_get_read_info(tu_fifo_t *f, tu_fifo_buffer_info_t *info)
 963:tinyusb/src/common/tusb_fifo.c **** {
 2623              		.loc 1 963 1 is_stmt 1 view -0
 2624              		.cfi_startproc
 2625              		@ args = 0, pretend = 0, frame = 0
 2626              		@ frame_needed = 0, uses_anonymous_args = 0
 2627              		.loc 1 963 1 is_stmt 0 view .LVU734
 2628 0000 10B5     		push	{r4, lr}
 2629              	.LCFI38:
 2630              		.cfi_def_cfa_offset 8
 2631              		.cfi_offset 4, -8
 2632              		.cfi_offset 14, -4
 964:tinyusb/src/common/tusb_fifo.c ****   // Operate on temporary values in case they change in between
 965:tinyusb/src/common/tusb_fifo.c ****   uint16_t wr_idx = f->wr_idx;
 2633              		.loc 1 965 3 is_stmt 1 view .LVU735
 2634              		.loc 1 965 12 is_stmt 0 view .LVU736
 2635 0002 B0F808C0 		ldrh	ip, [r0, #8]
 2636 0006 1FFA8CFC 		uxth	ip, ip
ARM GAS  /tmp/cc5fbsfm.s 			page 77


 2637              	.LVL307:
 966:tinyusb/src/common/tusb_fifo.c ****   uint16_t rd_idx = f->rd_idx;
 2638              		.loc 1 966 3 is_stmt 1 view .LVU737
 2639              		.loc 1 966 12 is_stmt 0 view .LVU738
 2640 000a 4389     		ldrh	r3, [r0, #10]
 2641 000c 9BB2     		uxth	r3, r3
 2642              	.LVL308:
 967:tinyusb/src/common/tusb_fifo.c **** 
 968:tinyusb/src/common/tusb_fifo.c ****   uint16_t cnt = _ff_count(f->depth, wr_idx, rd_idx);
 2643              		.loc 1 968 3 is_stmt 1 view .LVU739
 2644              		.loc 1 968 18 is_stmt 0 view .LVU740
 2645 000e 8288     		ldrh	r2, [r0, #4]
 2646              	.LVL309:
 2647              	.LBB186:
 2648              	.LBI186:
 324:tinyusb/src/common/tusb_fifo.c **** {
 2649              		.loc 1 324 10 is_stmt 1 view .LVU741
 2650              	.LBB187:
 327:tinyusb/src/common/tusb_fifo.c ****   {
 2651              		.loc 1 327 3 view .LVU742
 327:tinyusb/src/common/tusb_fifo.c ****   {
 2652              		.loc 1 327 6 is_stmt 0 view .LVU743
 2653 0010 9C45     		cmp	ip, r3
 2654 0012 12D3     		bcc	.L131
 329:tinyusb/src/common/tusb_fifo.c ****   } else
 2655              		.loc 1 329 5 is_stmt 1 view .LVU744
 329:tinyusb/src/common/tusb_fifo.c ****   } else
 2656              		.loc 1 329 12 is_stmt 0 view .LVU745
 2657 0014 ACEB0304 		sub	r4, ip, r3
 2658 0018 A4B2     		uxth	r4, r4
 2659              	.L132:
 2660              	.LVL310:
 329:tinyusb/src/common/tusb_fifo.c ****   } else
 2661              		.loc 1 329 12 view .LVU746
 2662              	.LBE187:
 2663              	.LBE186:
 969:tinyusb/src/common/tusb_fifo.c **** 
 970:tinyusb/src/common/tusb_fifo.c ****   // Check overflow and correct if required - may happen in case a DMA wrote too fast
 971:tinyusb/src/common/tusb_fifo.c ****   if (cnt > f->depth)
 2664              		.loc 1 971 3 is_stmt 1 view .LVU747
 2665              		.loc 1 971 6 is_stmt 0 view .LVU748
 2666 001a A242     		cmp	r2, r4
 2667 001c 06D2     		bcs	.L133
 972:tinyusb/src/common/tusb_fifo.c ****   {
 973:tinyusb/src/common/tusb_fifo.c ****     _ff_lock(f->mutex_rd);
 2668              		.loc 1 973 26 is_stmt 1 view .LVU749
 974:tinyusb/src/common/tusb_fifo.c ****     rd_idx = _ff_correct_read_index(f, wr_idx);
 2669              		.loc 1 974 5 view .LVU750
 2670              	.LVL311:
 2671              	.LBB189:
 2672              	.LBI189:
 396:tinyusb/src/common/tusb_fifo.c **** {
 2673              		.loc 1 396 10 view .LVU751
 2674              	.LBB190:
 398:tinyusb/src/common/tusb_fifo.c ****   if ( wr_idx >= f->depth )
 2675              		.loc 1 398 3 view .LVU752
 399:tinyusb/src/common/tusb_fifo.c ****   {
ARM GAS  /tmp/cc5fbsfm.s 			page 78


 2676              		.loc 1 399 3 view .LVU753
 399:tinyusb/src/common/tusb_fifo.c ****   {
 2677              		.loc 1 399 6 is_stmt 0 view .LVU754
 2678 001e 6245     		cmp	r2, ip
 2679 0020 13D8     		bhi	.L134
 401:tinyusb/src/common/tusb_fifo.c ****   }else
 2680              		.loc 1 401 5 is_stmt 1 view .LVU755
 401:tinyusb/src/common/tusb_fifo.c ****   }else
 2681              		.loc 1 401 12 is_stmt 0 view .LVU756
 2682 0022 ACEB0203 		sub	r3, ip, r2
 2683              	.LVL312:
 401:tinyusb/src/common/tusb_fifo.c ****   }else
 2684              		.loc 1 401 12 view .LVU757
 2685 0026 9BB2     		uxth	r3, r3
 2686              	.LVL313:
 2687              	.L135:
 407:tinyusb/src/common/tusb_fifo.c **** 
 2688              		.loc 1 407 3 is_stmt 1 view .LVU758
 407:tinyusb/src/common/tusb_fifo.c **** 
 2689              		.loc 1 407 13 is_stmt 0 view .LVU759
 2690 0028 4381     		strh	r3, [r0, #10]	@ movhi
 409:tinyusb/src/common/tusb_fifo.c **** }
 2691              		.loc 1 409 3 is_stmt 1 view .LVU760
 2692              	.LVL314:
 409:tinyusb/src/common/tusb_fifo.c **** }
 2693              		.loc 1 409 3 is_stmt 0 view .LVU761
 2694              	.LBE190:
 2695              	.LBE189:
 975:tinyusb/src/common/tusb_fifo.c ****     _ff_unlock(f->mutex_rd);
 2696              		.loc 1 975 28 is_stmt 1 view .LVU762
 976:tinyusb/src/common/tusb_fifo.c **** 
 977:tinyusb/src/common/tusb_fifo.c ****     cnt = f->depth;
 2697              		.loc 1 977 5 view .LVU763
 2698              		.loc 1 977 9 is_stmt 0 view .LVU764
 2699 002a 1446     		mov	r4, r2
 2700              	.LVL315:
 2701              	.L133:
 978:tinyusb/src/common/tusb_fifo.c ****   }
 979:tinyusb/src/common/tusb_fifo.c **** 
 980:tinyusb/src/common/tusb_fifo.c ****   // Check if fifo is empty
 981:tinyusb/src/common/tusb_fifo.c ****   if (cnt == 0)
 2702              		.loc 1 981 3 is_stmt 1 view .LVU765
 2703              		.loc 1 981 6 is_stmt 0 view .LVU766
 2704 002c ACB9     		cbnz	r4, .L136
 982:tinyusb/src/common/tusb_fifo.c ****   {
 983:tinyusb/src/common/tusb_fifo.c ****     info->len_lin  = 0;
 2705              		.loc 1 983 5 is_stmt 1 view .LVU767
 2706              		.loc 1 983 20 is_stmt 0 view .LVU768
 2707 002e 0023     		movs	r3, #0
 2708              	.LVL316:
 2709              		.loc 1 983 20 view .LVU769
 2710 0030 0B80     		strh	r3, [r1]	@ movhi
 984:tinyusb/src/common/tusb_fifo.c ****     info->len_wrap = 0;
 2711              		.loc 1 984 5 is_stmt 1 view .LVU770
 2712              		.loc 1 984 20 is_stmt 0 view .LVU771
 2713 0032 4B80     		strh	r3, [r1, #2]	@ movhi
 985:tinyusb/src/common/tusb_fifo.c ****     info->ptr_lin  = NULL;
ARM GAS  /tmp/cc5fbsfm.s 			page 79


 2714              		.loc 1 985 5 is_stmt 1 view .LVU772
 2715              		.loc 1 985 20 is_stmt 0 view .LVU773
 2716 0034 4B60     		str	r3, [r1, #4]
 986:tinyusb/src/common/tusb_fifo.c ****     info->ptr_wrap = NULL;
 2717              		.loc 1 986 5 is_stmt 1 view .LVU774
 2718              		.loc 1 986 20 is_stmt 0 view .LVU775
 2719 0036 8B60     		str	r3, [r1, #8]
 987:tinyusb/src/common/tusb_fifo.c ****     return;
 2720              		.loc 1 987 5 is_stmt 1 view .LVU776
 2721              	.LVL317:
 2722              	.L130:
 988:tinyusb/src/common/tusb_fifo.c ****   }
 989:tinyusb/src/common/tusb_fifo.c **** 
 990:tinyusb/src/common/tusb_fifo.c ****   // Get relative pointers
 991:tinyusb/src/common/tusb_fifo.c ****   uint16_t wr_ptr = idx2ptr(f->depth, wr_idx);
 992:tinyusb/src/common/tusb_fifo.c ****   uint16_t rd_ptr = idx2ptr(f->depth, rd_idx);
 993:tinyusb/src/common/tusb_fifo.c **** 
 994:tinyusb/src/common/tusb_fifo.c ****   // Copy pointer to buffer to start reading from
 995:tinyusb/src/common/tusb_fifo.c ****   info->ptr_lin = &f->buffer[rd_ptr];
 996:tinyusb/src/common/tusb_fifo.c **** 
 997:tinyusb/src/common/tusb_fifo.c ****   // Check if there is a wrap around necessary
 998:tinyusb/src/common/tusb_fifo.c ****   if (wr_ptr > rd_ptr)
 999:tinyusb/src/common/tusb_fifo.c ****   {
1000:tinyusb/src/common/tusb_fifo.c ****     // Non wrapping case
1001:tinyusb/src/common/tusb_fifo.c ****     info->len_lin  = cnt;
1002:tinyusb/src/common/tusb_fifo.c **** 
1003:tinyusb/src/common/tusb_fifo.c ****     info->len_wrap = 0;
1004:tinyusb/src/common/tusb_fifo.c ****     info->ptr_wrap = NULL;
1005:tinyusb/src/common/tusb_fifo.c ****   }
1006:tinyusb/src/common/tusb_fifo.c ****   else
1007:tinyusb/src/common/tusb_fifo.c ****   {
1008:tinyusb/src/common/tusb_fifo.c ****     info->len_lin  = f->depth - rd_ptr;   // Also the case if FIFO was full
1009:tinyusb/src/common/tusb_fifo.c **** 
1010:tinyusb/src/common/tusb_fifo.c ****     info->len_wrap = cnt - info->len_lin;
1011:tinyusb/src/common/tusb_fifo.c ****     info->ptr_wrap = f->buffer;
1012:tinyusb/src/common/tusb_fifo.c ****   }
1013:tinyusb/src/common/tusb_fifo.c **** }
 2723              		.loc 1 1013 1 is_stmt 0 view .LVU777
 2724 0038 10BD     		pop	{r4, pc}
 2725              	.LVL318:
 2726              	.L131:
 2727              	.LBB192:
 2728              	.LBB188:
 332:tinyusb/src/common/tusb_fifo.c ****   }
 2729              		.loc 1 332 5 is_stmt 1 view .LVU778
 332:tinyusb/src/common/tusb_fifo.c ****   }
 2730              		.loc 1 332 32 is_stmt 0 view .LVU779
 2731 003a ACEB0304 		sub	r4, ip, r3
 332:tinyusb/src/common/tusb_fifo.c ****   }
 2732              		.loc 1 332 12 view .LVU780
 2733 003e 4FEA420E 		lsl	lr, r2, #1
 2734 0042 1EFA84F4 		uxtah	r4, lr, r4
 2735 0046 A4B2     		uxth	r4, r4
 2736 0048 E7E7     		b	.L132
 2737              	.LVL319:
 2738              	.L134:
 332:tinyusb/src/common/tusb_fifo.c ****   }
ARM GAS  /tmp/cc5fbsfm.s 			page 80


 2739              		.loc 1 332 12 view .LVU781
 2740              	.LBE188:
 2741              	.LBE192:
 2742              	.LBB193:
 2743              	.LBB191:
 404:tinyusb/src/common/tusb_fifo.c ****   }
 2744              		.loc 1 404 5 is_stmt 1 view .LVU782
 404:tinyusb/src/common/tusb_fifo.c ****   }
 2745              		.loc 1 404 12 is_stmt 0 view .LVU783
 2746 004a 02EB0C03 		add	r3, r2, ip
 2747              	.LVL320:
 404:tinyusb/src/common/tusb_fifo.c ****   }
 2748              		.loc 1 404 12 view .LVU784
 2749 004e 9BB2     		uxth	r3, r3
 2750              	.LVL321:
 404:tinyusb/src/common/tusb_fifo.c ****   }
 2751              		.loc 1 404 12 view .LVU785
 2752 0050 EAE7     		b	.L135
 2753              	.LVL322:
 2754              	.L138:
 404:tinyusb/src/common/tusb_fifo.c ****   }
 2755              		.loc 1 404 12 view .LVU786
 2756              	.LBE191:
 2757              	.LBE193:
 2758              	.LBB194:
 2759              	.LBB195:
 388:tinyusb/src/common/tusb_fifo.c ****   return idx;
 2760              		.loc 1 388 26 is_stmt 1 view .LVU787
 388:tinyusb/src/common/tusb_fifo.c ****   return idx;
 2761              		.loc 1 388 30 is_stmt 0 view .LVU788
 2762 0052 ACEB020C 		sub	ip, ip, r2
 2763              	.LVL323:
 388:tinyusb/src/common/tusb_fifo.c ****   return idx;
 2764              		.loc 1 388 30 view .LVU789
 2765 0056 1FFA8CFC 		uxth	ip, ip
 2766              	.LVL324:
 2767              	.L136:
 388:tinyusb/src/common/tusb_fifo.c ****   return idx;
 2768              		.loc 1 388 9 is_stmt 1 view .LVU790
 2769 005a 6245     		cmp	r2, ip
 2770 005c F9D9     		bls	.L138
 2771 005e 01E0     		b	.L139
 2772              	.LVL325:
 2773              	.L140:
 388:tinyusb/src/common/tusb_fifo.c ****   return idx;
 2774              		.loc 1 388 9 is_stmt 0 view .LVU791
 2775              	.LBE195:
 2776              	.LBE194:
 2777              	.LBB196:
 2778              	.LBB197:
 388:tinyusb/src/common/tusb_fifo.c ****   return idx;
 2779              		.loc 1 388 26 is_stmt 1 view .LVU792
 388:tinyusb/src/common/tusb_fifo.c ****   return idx;
 2780              		.loc 1 388 30 is_stmt 0 view .LVU793
 2781 0060 9B1A     		subs	r3, r3, r2
 2782              	.LVL326:
 388:tinyusb/src/common/tusb_fifo.c ****   return idx;
ARM GAS  /tmp/cc5fbsfm.s 			page 81


 2783              		.loc 1 388 30 view .LVU794
 2784 0062 9BB2     		uxth	r3, r3
 2785              	.LVL327:
 2786              	.L139:
 388:tinyusb/src/common/tusb_fifo.c ****   return idx;
 2787              		.loc 1 388 9 is_stmt 1 view .LVU795
 2788 0064 9A42     		cmp	r2, r3
 2789 0066 FBD9     		bls	.L140
 389:tinyusb/src/common/tusb_fifo.c **** }
 2790              		.loc 1 389 3 view .LVU796
 2791              	.LVL328:
 389:tinyusb/src/common/tusb_fifo.c **** }
 2792              		.loc 1 389 3 is_stmt 0 view .LVU797
 2793              	.LBE197:
 2794              	.LBE196:
 995:tinyusb/src/common/tusb_fifo.c **** 
 2795              		.loc 1 995 3 is_stmt 1 view .LVU798
 995:tinyusb/src/common/tusb_fifo.c **** 
 2796              		.loc 1 995 21 is_stmt 0 view .LVU799
 2797 0068 0268     		ldr	r2, [r0]
 995:tinyusb/src/common/tusb_fifo.c **** 
 2798              		.loc 1 995 19 view .LVU800
 2799 006a 1A44     		add	r2, r2, r3
 995:tinyusb/src/common/tusb_fifo.c **** 
 2800              		.loc 1 995 17 view .LVU801
 2801 006c 4A60     		str	r2, [r1, #4]
 998:tinyusb/src/common/tusb_fifo.c ****   {
 2802              		.loc 1 998 3 is_stmt 1 view .LVU802
 998:tinyusb/src/common/tusb_fifo.c ****   {
 2803              		.loc 1 998 6 is_stmt 0 view .LVU803
 2804 006e 6345     		cmp	r3, ip
 2805 0070 04D2     		bcs	.L141
1001:tinyusb/src/common/tusb_fifo.c **** 
 2806              		.loc 1 1001 5 is_stmt 1 view .LVU804
1001:tinyusb/src/common/tusb_fifo.c **** 
 2807              		.loc 1 1001 20 is_stmt 0 view .LVU805
 2808 0072 0C80     		strh	r4, [r1]	@ movhi
1003:tinyusb/src/common/tusb_fifo.c ****     info->ptr_wrap = NULL;
 2809              		.loc 1 1003 5 is_stmt 1 view .LVU806
1003:tinyusb/src/common/tusb_fifo.c ****     info->ptr_wrap = NULL;
 2810              		.loc 1 1003 20 is_stmt 0 view .LVU807
 2811 0074 0023     		movs	r3, #0
 2812              	.LVL329:
1003:tinyusb/src/common/tusb_fifo.c ****     info->ptr_wrap = NULL;
 2813              		.loc 1 1003 20 view .LVU808
 2814 0076 4B80     		strh	r3, [r1, #2]	@ movhi
1004:tinyusb/src/common/tusb_fifo.c ****   }
 2815              		.loc 1 1004 5 is_stmt 1 view .LVU809
1004:tinyusb/src/common/tusb_fifo.c ****   }
 2816              		.loc 1 1004 20 is_stmt 0 view .LVU810
 2817 0078 8B60     		str	r3, [r1, #8]
 2818 007a DDE7     		b	.L130
 2819              	.LVL330:
 2820              	.L141:
1008:tinyusb/src/common/tusb_fifo.c **** 
 2821              		.loc 1 1008 5 is_stmt 1 view .LVU811
1008:tinyusb/src/common/tusb_fifo.c **** 
ARM GAS  /tmp/cc5fbsfm.s 			page 82


 2822              		.loc 1 1008 23 is_stmt 0 view .LVU812
 2823 007c 8288     		ldrh	r2, [r0, #4]
1008:tinyusb/src/common/tusb_fifo.c **** 
 2824              		.loc 1 1008 31 view .LVU813
 2825 007e D31A     		subs	r3, r2, r3
 2826              	.LVL331:
1008:tinyusb/src/common/tusb_fifo.c **** 
 2827              		.loc 1 1008 31 view .LVU814
 2828 0080 9BB2     		uxth	r3, r3
1008:tinyusb/src/common/tusb_fifo.c **** 
 2829              		.loc 1 1008 20 view .LVU815
 2830 0082 0B80     		strh	r3, [r1]	@ movhi
1010:tinyusb/src/common/tusb_fifo.c ****     info->ptr_wrap = f->buffer;
 2831              		.loc 1 1010 5 is_stmt 1 view .LVU816
1010:tinyusb/src/common/tusb_fifo.c ****     info->ptr_wrap = f->buffer;
 2832              		.loc 1 1010 26 is_stmt 0 view .LVU817
 2833 0084 E41A     		subs	r4, r4, r3
 2834              	.LVL332:
1010:tinyusb/src/common/tusb_fifo.c ****     info->ptr_wrap = f->buffer;
 2835              		.loc 1 1010 20 view .LVU818
 2836 0086 4C80     		strh	r4, [r1, #2]	@ movhi
1011:tinyusb/src/common/tusb_fifo.c ****   }
 2837              		.loc 1 1011 5 is_stmt 1 view .LVU819
1011:tinyusb/src/common/tusb_fifo.c ****   }
 2838              		.loc 1 1011 23 is_stmt 0 view .LVU820
 2839 0088 0368     		ldr	r3, [r0]
1011:tinyusb/src/common/tusb_fifo.c ****   }
 2840              		.loc 1 1011 20 view .LVU821
 2841 008a 8B60     		str	r3, [r1, #8]
 2842 008c D4E7     		b	.L130
 2843              		.cfi_endproc
 2844              	.LFE92:
 2846              		.section	.text.tu_fifo_get_write_info,"ax",%progbits
 2847              		.align	1
 2848              		.global	tu_fifo_get_write_info
 2849              		.syntax unified
 2850              		.thumb
 2851              		.thumb_func
 2852              		.fpu fpv4-sp-d16
 2854              	tu_fifo_get_write_info:
 2855              	.LVL333:
 2856              	.LFB93:
1014:tinyusb/src/common/tusb_fifo.c **** 
1015:tinyusb/src/common/tusb_fifo.c **** /******************************************************************************/
1016:tinyusb/src/common/tusb_fifo.c **** /*!
1017:tinyusb/src/common/tusb_fifo.c ****    @brief Get linear write info
1018:tinyusb/src/common/tusb_fifo.c **** 
1019:tinyusb/src/common/tusb_fifo.c ****    Returns the length and pointer to which bytes can be written into FIFO in a linear manner.
1020:tinyusb/src/common/tusb_fifo.c ****    This is of major interest for DMA transmissions not using circular mode. If a returned length is
1021:tinyusb/src/common/tusb_fifo.c ****    corresponding pointer is invalid. The returned lengths summed up are the currently free space in
1022:tinyusb/src/common/tusb_fifo.c ****    The write pointer does NOT get advanced, use tu_fifo_advance_write_pointer() to do so!
1023:tinyusb/src/common/tusb_fifo.c ****    TAKE CARE TO NOT OVERFLOW THE BUFFER MORE THAN TWO TIMES THE FIFO DEPTH - IT CAN NOT RECOVERE OT
1024:tinyusb/src/common/tusb_fifo.c ****    @param[in]       f
1025:tinyusb/src/common/tusb_fifo.c ****                     Pointer to FIFO
1026:tinyusb/src/common/tusb_fifo.c ****    @param[out]      *info
1027:tinyusb/src/common/tusb_fifo.c ****                     Pointer to struct which holds the desired infos
1028:tinyusb/src/common/tusb_fifo.c ****  */
ARM GAS  /tmp/cc5fbsfm.s 			page 83


1029:tinyusb/src/common/tusb_fifo.c **** /******************************************************************************/
1030:tinyusb/src/common/tusb_fifo.c **** void tu_fifo_get_write_info(tu_fifo_t *f, tu_fifo_buffer_info_t *info)
1031:tinyusb/src/common/tusb_fifo.c **** {
 2857              		.loc 1 1031 1 is_stmt 1 view -0
 2858              		.cfi_startproc
 2859              		@ args = 0, pretend = 0, frame = 0
 2860              		@ frame_needed = 0, uses_anonymous_args = 0
 2861              		.loc 1 1031 1 is_stmt 0 view .LVU823
 2862 0000 30B5     		push	{r4, r5, lr}
 2863              	.LCFI39:
 2864              		.cfi_def_cfa_offset 12
 2865              		.cfi_offset 4, -12
 2866              		.cfi_offset 5, -8
 2867              		.cfi_offset 14, -4
1032:tinyusb/src/common/tusb_fifo.c ****   uint16_t wr_idx = f->wr_idx;
 2868              		.loc 1 1032 3 is_stmt 1 view .LVU824
 2869              		.loc 1 1032 12 is_stmt 0 view .LVU825
 2870 0002 0389     		ldrh	r3, [r0, #8]
 2871 0004 9BB2     		uxth	r3, r3
 2872              	.LVL334:
1033:tinyusb/src/common/tusb_fifo.c ****   uint16_t rd_idx = f->rd_idx;
 2873              		.loc 1 1033 3 is_stmt 1 view .LVU826
 2874              		.loc 1 1033 12 is_stmt 0 view .LVU827
 2875 0006 4289     		ldrh	r2, [r0, #10]
 2876 0008 92B2     		uxth	r2, r2
 2877              	.LVL335:
1034:tinyusb/src/common/tusb_fifo.c ****   uint16_t remain = _ff_remaining(f->depth, wr_idx, rd_idx);
 2878              		.loc 1 1034 3 is_stmt 1 view .LVU828
 2879              		.loc 1 1034 21 is_stmt 0 view .LVU829
 2880 000a B0F804C0 		ldrh	ip, [r0, #4]
 2881              	.LVL336:
 2882              	.LBB198:
 2883              	.LBI198:
 338:tinyusb/src/common/tusb_fifo.c **** {
 2884              		.loc 1 338 10 is_stmt 1 view .LVU830
 2885              	.LBB199:
 340:tinyusb/src/common/tusb_fifo.c ****   return (depth > count) ? (depth - count) : 0;
 2886              		.loc 1 340 3 view .LVU831
 2887              	.LBB200:
 2888              	.LBI200:
 324:tinyusb/src/common/tusb_fifo.c **** {
 2889              		.loc 1 324 10 view .LVU832
 2890              	.LBB201:
 327:tinyusb/src/common/tusb_fifo.c ****   {
 2891              		.loc 1 327 3 view .LVU833
 327:tinyusb/src/common/tusb_fifo.c ****   {
 2892              		.loc 1 327 6 is_stmt 0 view .LVU834
 2893 000e 9342     		cmp	r3, r2
 2894 0010 10D3     		bcc	.L144
 329:tinyusb/src/common/tusb_fifo.c ****   } else
 2895              		.loc 1 329 5 is_stmt 1 view .LVU835
 329:tinyusb/src/common/tusb_fifo.c ****   } else
 2896              		.loc 1 329 12 is_stmt 0 view .LVU836
 2897 0012 A3EB020E 		sub	lr, r3, r2
 2898 0016 1FFA8EFE 		uxth	lr, lr
 2899              	.L145:
 2900              	.LVL337:
ARM GAS  /tmp/cc5fbsfm.s 			page 84


 329:tinyusb/src/common/tusb_fifo.c ****   } else
 2901              		.loc 1 329 12 view .LVU837
 2902              	.LBE201:
 2903              	.LBE200:
 341:tinyusb/src/common/tusb_fifo.c **** }
 2904              		.loc 1 341 3 is_stmt 1 view .LVU838
 341:tinyusb/src/common/tusb_fifo.c **** }
 2905              		.loc 1 341 44 is_stmt 0 view .LVU839
 2906 001a F445     		cmp	ip, lr
 2907 001c 04D9     		bls	.L146
 2908 001e ACEB0E0E 		sub	lr, ip, lr
 2909              	.LVL338:
 341:tinyusb/src/common/tusb_fifo.c **** }
 2910              		.loc 1 341 44 view .LVU840
 2911 0022 1FFA8EF4 		uxth	r4, lr
 2912              	.LVL339:
 341:tinyusb/src/common/tusb_fifo.c **** }
 2913              		.loc 1 341 44 view .LVU841
 2914              	.LBE199:
 2915              	.LBE198:
1035:tinyusb/src/common/tusb_fifo.c **** 
1036:tinyusb/src/common/tusb_fifo.c ****   if (remain == 0)
 2916              		.loc 1 1036 3 is_stmt 1 view .LVU842
 2917              		.loc 1 1036 6 is_stmt 0 view .LVU843
 2918 0026 8CB9     		cbnz	r4, .L147
 2919              	.LVL340:
 2920              	.L146:
1037:tinyusb/src/common/tusb_fifo.c ****   {
1038:tinyusb/src/common/tusb_fifo.c ****     info->len_lin  = 0;
 2921              		.loc 1 1038 5 is_stmt 1 view .LVU844
 2922              		.loc 1 1038 20 is_stmt 0 view .LVU845
 2923 0028 0023     		movs	r3, #0
 2924              	.LVL341:
 2925              		.loc 1 1038 20 view .LVU846
 2926 002a 0B80     		strh	r3, [r1]	@ movhi
1039:tinyusb/src/common/tusb_fifo.c ****     info->len_wrap = 0;
 2927              		.loc 1 1039 5 is_stmt 1 view .LVU847
 2928              		.loc 1 1039 20 is_stmt 0 view .LVU848
 2929 002c 4B80     		strh	r3, [r1, #2]	@ movhi
1040:tinyusb/src/common/tusb_fifo.c ****     info->ptr_lin  = NULL;
 2930              		.loc 1 1040 5 is_stmt 1 view .LVU849
 2931              		.loc 1 1040 20 is_stmt 0 view .LVU850
 2932 002e 4B60     		str	r3, [r1, #4]
1041:tinyusb/src/common/tusb_fifo.c ****     info->ptr_wrap = NULL;
 2933              		.loc 1 1041 5 is_stmt 1 view .LVU851
 2934              		.loc 1 1041 20 is_stmt 0 view .LVU852
 2935 0030 8B60     		str	r3, [r1, #8]
1042:tinyusb/src/common/tusb_fifo.c ****     return;
 2936              		.loc 1 1042 5 is_stmt 1 view .LVU853
 2937              	.LVL342:
 2938              	.L143:
1043:tinyusb/src/common/tusb_fifo.c ****   }
1044:tinyusb/src/common/tusb_fifo.c **** 
1045:tinyusb/src/common/tusb_fifo.c ****   // Get relative pointers
1046:tinyusb/src/common/tusb_fifo.c ****   uint16_t wr_ptr = idx2ptr(f->depth, wr_idx);
1047:tinyusb/src/common/tusb_fifo.c ****   uint16_t rd_ptr = idx2ptr(f->depth, rd_idx);
1048:tinyusb/src/common/tusb_fifo.c **** 
ARM GAS  /tmp/cc5fbsfm.s 			page 85


1049:tinyusb/src/common/tusb_fifo.c ****   // Copy pointer to buffer to start writing to
1050:tinyusb/src/common/tusb_fifo.c ****   info->ptr_lin = &f->buffer[wr_ptr];
1051:tinyusb/src/common/tusb_fifo.c **** 
1052:tinyusb/src/common/tusb_fifo.c ****   if (wr_ptr < rd_ptr)
1053:tinyusb/src/common/tusb_fifo.c ****   {
1054:tinyusb/src/common/tusb_fifo.c ****     // Non wrapping case
1055:tinyusb/src/common/tusb_fifo.c ****     info->len_lin  = rd_ptr-wr_ptr;
1056:tinyusb/src/common/tusb_fifo.c ****     info->len_wrap = 0;
1057:tinyusb/src/common/tusb_fifo.c ****     info->ptr_wrap = NULL;
1058:tinyusb/src/common/tusb_fifo.c ****   }
1059:tinyusb/src/common/tusb_fifo.c ****   else
1060:tinyusb/src/common/tusb_fifo.c ****   {
1061:tinyusb/src/common/tusb_fifo.c ****     info->len_lin  = f->depth - wr_ptr;
1062:tinyusb/src/common/tusb_fifo.c ****     info->len_wrap = remain - info->len_lin; // Remaining length - n already was limited to remain 
1063:tinyusb/src/common/tusb_fifo.c ****     info->ptr_wrap = f->buffer;              // Always start of buffer
1064:tinyusb/src/common/tusb_fifo.c ****   }
1065:tinyusb/src/common/tusb_fifo.c **** }
 2939              		.loc 1 1065 1 is_stmt 0 view .LVU854
 2940 0032 30BD     		pop	{r4, r5, pc}
 2941              	.LVL343:
 2942              	.L144:
 2943              	.LBB205:
 2944              	.LBB204:
 2945              	.LBB203:
 2946              	.LBB202:
 332:tinyusb/src/common/tusb_fifo.c ****   }
 2947              		.loc 1 332 5 is_stmt 1 view .LVU855
 332:tinyusb/src/common/tusb_fifo.c ****   }
 2948              		.loc 1 332 32 is_stmt 0 view .LVU856
 2949 0034 A3EB020E 		sub	lr, r3, r2
 332:tinyusb/src/common/tusb_fifo.c ****   }
 2950              		.loc 1 332 12 view .LVU857
 2951 0038 4FEA4C04 		lsl	r4, ip, #1
 2952 003c 14FA8EFE 		uxtah	lr, r4, lr
 2953 0040 1FFA8EFE 		uxth	lr, lr
 2954 0044 E9E7     		b	.L145
 2955              	.LVL344:
 2956              	.L149:
 332:tinyusb/src/common/tusb_fifo.c ****   }
 2957              		.loc 1 332 12 view .LVU858
 2958              	.LBE202:
 2959              	.LBE203:
 2960              	.LBE204:
 2961              	.LBE205:
 2962              	.LBB206:
 2963              	.LBB207:
 388:tinyusb/src/common/tusb_fifo.c ****   return idx;
 2964              		.loc 1 388 26 is_stmt 1 view .LVU859
 388:tinyusb/src/common/tusb_fifo.c ****   return idx;
 2965              		.loc 1 388 30 is_stmt 0 view .LVU860
 2966 0046 A3EB0C03 		sub	r3, r3, ip
 2967              	.LVL345:
 388:tinyusb/src/common/tusb_fifo.c ****   return idx;
 2968              		.loc 1 388 30 view .LVU861
 2969 004a 9BB2     		uxth	r3, r3
 2970              	.LVL346:
 2971              	.L147:
ARM GAS  /tmp/cc5fbsfm.s 			page 86


 388:tinyusb/src/common/tusb_fifo.c ****   return idx;
 2972              		.loc 1 388 9 is_stmt 1 view .LVU862
 2973 004c 9C45     		cmp	ip, r3
 2974 004e FAD9     		bls	.L149
 2975 0050 02E0     		b	.L150
 2976              	.LVL347:
 2977              	.L151:
 388:tinyusb/src/common/tusb_fifo.c ****   return idx;
 2978              		.loc 1 388 9 is_stmt 0 view .LVU863
 2979              	.LBE207:
 2980              	.LBE206:
 2981              	.LBB208:
 2982              	.LBB209:
 388:tinyusb/src/common/tusb_fifo.c ****   return idx;
 2983              		.loc 1 388 26 is_stmt 1 view .LVU864
 388:tinyusb/src/common/tusb_fifo.c ****   return idx;
 2984              		.loc 1 388 30 is_stmt 0 view .LVU865
 2985 0052 A2EB0C02 		sub	r2, r2, ip
 2986              	.LVL348:
 388:tinyusb/src/common/tusb_fifo.c ****   return idx;
 2987              		.loc 1 388 30 view .LVU866
 2988 0056 92B2     		uxth	r2, r2
 2989              	.LVL349:
 2990              	.L150:
 388:tinyusb/src/common/tusb_fifo.c ****   return idx;
 2991              		.loc 1 388 9 is_stmt 1 view .LVU867
 2992 0058 9445     		cmp	ip, r2
 2993 005a FAD9     		bls	.L151
 389:tinyusb/src/common/tusb_fifo.c **** }
 2994              		.loc 1 389 3 view .LVU868
 2995              	.LVL350:
 389:tinyusb/src/common/tusb_fifo.c **** }
 2996              		.loc 1 389 3 is_stmt 0 view .LVU869
 2997              	.LBE209:
 2998              	.LBE208:
1050:tinyusb/src/common/tusb_fifo.c **** 
 2999              		.loc 1 1050 3 is_stmt 1 view .LVU870
1050:tinyusb/src/common/tusb_fifo.c **** 
 3000              		.loc 1 1050 21 is_stmt 0 view .LVU871
 3001 005c 0568     		ldr	r5, [r0]
1050:tinyusb/src/common/tusb_fifo.c **** 
 3002              		.loc 1 1050 19 view .LVU872
 3003 005e 1D44     		add	r5, r5, r3
1050:tinyusb/src/common/tusb_fifo.c **** 
 3004              		.loc 1 1050 17 view .LVU873
 3005 0060 4D60     		str	r5, [r1, #4]
1052:tinyusb/src/common/tusb_fifo.c ****   {
 3006              		.loc 1 1052 3 is_stmt 1 view .LVU874
1052:tinyusb/src/common/tusb_fifo.c ****   {
 3007              		.loc 1 1052 6 is_stmt 0 view .LVU875
 3008 0062 9A42     		cmp	r2, r3
 3009 0064 05D9     		bls	.L152
1055:tinyusb/src/common/tusb_fifo.c ****     info->len_wrap = 0;
 3010              		.loc 1 1055 5 is_stmt 1 view .LVU876
1055:tinyusb/src/common/tusb_fifo.c ****     info->len_wrap = 0;
 3011              		.loc 1 1055 28 is_stmt 0 view .LVU877
 3012 0066 D31A     		subs	r3, r2, r3
ARM GAS  /tmp/cc5fbsfm.s 			page 87


1055:tinyusb/src/common/tusb_fifo.c ****     info->len_wrap = 0;
 3013              		.loc 1 1055 20 view .LVU878
 3014 0068 0B80     		strh	r3, [r1]	@ movhi
1056:tinyusb/src/common/tusb_fifo.c ****     info->ptr_wrap = NULL;
 3015              		.loc 1 1056 5 is_stmt 1 view .LVU879
1056:tinyusb/src/common/tusb_fifo.c ****     info->ptr_wrap = NULL;
 3016              		.loc 1 1056 20 is_stmt 0 view .LVU880
 3017 006a 0023     		movs	r3, #0
 3018 006c 4B80     		strh	r3, [r1, #2]	@ movhi
1057:tinyusb/src/common/tusb_fifo.c ****   }
 3019              		.loc 1 1057 5 is_stmt 1 view .LVU881
1057:tinyusb/src/common/tusb_fifo.c ****   }
 3020              		.loc 1 1057 20 is_stmt 0 view .LVU882
 3021 006e 8B60     		str	r3, [r1, #8]
 3022 0070 DFE7     		b	.L143
 3023              	.L152:
1061:tinyusb/src/common/tusb_fifo.c ****     info->len_wrap = remain - info->len_lin; // Remaining length - n already was limited to remain 
 3024              		.loc 1 1061 5 is_stmt 1 view .LVU883
1061:tinyusb/src/common/tusb_fifo.c ****     info->len_wrap = remain - info->len_lin; // Remaining length - n already was limited to remain 
 3025              		.loc 1 1061 23 is_stmt 0 view .LVU884
 3026 0072 8288     		ldrh	r2, [r0, #4]
 3027              	.LVL351:
1061:tinyusb/src/common/tusb_fifo.c ****     info->len_wrap = remain - info->len_lin; // Remaining length - n already was limited to remain 
 3028              		.loc 1 1061 31 view .LVU885
 3029 0074 D31A     		subs	r3, r2, r3
 3030 0076 9BB2     		uxth	r3, r3
1061:tinyusb/src/common/tusb_fifo.c ****     info->len_wrap = remain - info->len_lin; // Remaining length - n already was limited to remain 
 3031              		.loc 1 1061 20 view .LVU886
 3032 0078 0B80     		strh	r3, [r1]	@ movhi
1062:tinyusb/src/common/tusb_fifo.c ****     info->ptr_wrap = f->buffer;              // Always start of buffer
 3033              		.loc 1 1062 5 is_stmt 1 view .LVU887
1062:tinyusb/src/common/tusb_fifo.c ****     info->ptr_wrap = f->buffer;              // Always start of buffer
 3034              		.loc 1 1062 29 is_stmt 0 view .LVU888
 3035 007a E41A     		subs	r4, r4, r3
 3036              	.LVL352:
1062:tinyusb/src/common/tusb_fifo.c ****     info->ptr_wrap = f->buffer;              // Always start of buffer
 3037              		.loc 1 1062 20 view .LVU889
 3038 007c 4C80     		strh	r4, [r1, #2]	@ movhi
1063:tinyusb/src/common/tusb_fifo.c ****   }
 3039              		.loc 1 1063 5 is_stmt 1 view .LVU890
1063:tinyusb/src/common/tusb_fifo.c ****   }
 3040              		.loc 1 1063 23 is_stmt 0 view .LVU891
 3041 007e 0368     		ldr	r3, [r0]
1063:tinyusb/src/common/tusb_fifo.c ****   }
 3042              		.loc 1 1063 20 view .LVU892
 3043 0080 8B60     		str	r3, [r1, #8]
 3044 0082 D6E7     		b	.L143
 3045              		.cfi_endproc
 3046              	.LFE93:
 3048              		.text
 3049              	.Letext0:
 3050              		.file 3 "/usr/lib/gcc/arm-none-eabi/10.3.1/include/stdint.h"
 3051              		.file 4 "tinyusb/src/common/tusb_fifo.h"
 3052              		.file 5 "<built-in>"
ARM GAS  /tmp/cc5fbsfm.s 			page 88


DEFINED SYMBOLS
                            *ABS*:0000000000000000 tusb_fifo.c
     /tmp/cc5fbsfm.s:18     .text.advance_index:0000000000000000 $t
     /tmp/cc5fbsfm.s:25     .text.advance_index:0000000000000000 advance_index
     /tmp/cc5fbsfm.s:73     .text._tu_fifo_peek:0000000000000000 $t
     /tmp/cc5fbsfm.s:79     .text._tu_fifo_peek:0000000000000000 _tu_fifo_peek
     /tmp/cc5fbsfm.s:250    .text._ff_pull_const_addr:0000000000000000 $t
     /tmp/cc5fbsfm.s:256    .text._ff_pull_const_addr:0000000000000000 _ff_pull_const_addr
     /tmp/cc5fbsfm.s:359    .text._ff_pull_n:0000000000000000 $t
     /tmp/cc5fbsfm.s:365    .text._ff_pull_n:0000000000000000 _ff_pull_n
     /tmp/cc5fbsfm.s:644    .text._tu_fifo_peek_n:0000000000000000 $t
     /tmp/cc5fbsfm.s:650    .text._tu_fifo_peek_n:0000000000000000 _tu_fifo_peek_n
     /tmp/cc5fbsfm.s:814    .text._tu_fifo_read_n:0000000000000000 $t
     /tmp/cc5fbsfm.s:820    .text._tu_fifo_read_n:0000000000000000 _tu_fifo_read_n
     /tmp/cc5fbsfm.s:880    .text._ff_push_const_addr:0000000000000000 $t
     /tmp/cc5fbsfm.s:886    .text._ff_push_const_addr:0000000000000000 _ff_push_const_addr
     /tmp/cc5fbsfm.s:982    .text._ff_push_n:0000000000000000 $t
     /tmp/cc5fbsfm.s:988    .text._ff_push_n:0000000000000000 _ff_push_n
     /tmp/cc5fbsfm.s:1262   .text._tu_fifo_write_n:0000000000000000 $t
     /tmp/cc5fbsfm.s:1268   .text._tu_fifo_write_n:0000000000000000 _tu_fifo_write_n
     /tmp/cc5fbsfm.s:1589   .text.tu_fifo_config:0000000000000000 $t
     /tmp/cc5fbsfm.s:1596   .text.tu_fifo_config:0000000000000000 tu_fifo_config
     /tmp/cc5fbsfm.s:1659   .text.tu_fifo_count:0000000000000000 $t
     /tmp/cc5fbsfm.s:1666   .text.tu_fifo_count:0000000000000000 tu_fifo_count
     /tmp/cc5fbsfm.s:1741   .text.tu_fifo_empty:0000000000000000 $t
     /tmp/cc5fbsfm.s:1748   .text.tu_fifo_empty:0000000000000000 tu_fifo_empty
     /tmp/cc5fbsfm.s:1775   .text.tu_fifo_full:0000000000000000 $t
     /tmp/cc5fbsfm.s:1782   .text.tu_fifo_full:0000000000000000 tu_fifo_full
     /tmp/cc5fbsfm.s:1844   .text.tu_fifo_remaining:0000000000000000 $t
     /tmp/cc5fbsfm.s:1851   .text.tu_fifo_remaining:0000000000000000 tu_fifo_remaining
     /tmp/cc5fbsfm.s:1934   .text.tu_fifo_overflowed:0000000000000000 $t
     /tmp/cc5fbsfm.s:1941   .text.tu_fifo_overflowed:0000000000000000 tu_fifo_overflowed
     /tmp/cc5fbsfm.s:2003   .text.tu_fifo_correct_read_pointer:0000000000000000 $t
     /tmp/cc5fbsfm.s:2010   .text.tu_fifo_correct_read_pointer:0000000000000000 tu_fifo_correct_read_pointer
     /tmp/cc5fbsfm.s:2072   .text.tu_fifo_read:0000000000000000 $t
     /tmp/cc5fbsfm.s:2079   .text.tu_fifo_read:0000000000000000 tu_fifo_read
     /tmp/cc5fbsfm.s:2129   .text.tu_fifo_read_n:0000000000000000 $t
     /tmp/cc5fbsfm.s:2136   .text.tu_fifo_read_n:0000000000000000 tu_fifo_read_n
     /tmp/cc5fbsfm.s:2160   .text.tu_fifo_read_n_const_addr_full_words:0000000000000000 $t
     /tmp/cc5fbsfm.s:2167   .text.tu_fifo_read_n_const_addr_full_words:0000000000000000 tu_fifo_read_n_const_addr_full_words
     /tmp/cc5fbsfm.s:2191   .text.tu_fifo_peek:0000000000000000 $t
     /tmp/cc5fbsfm.s:2198   .text.tu_fifo_peek:0000000000000000 tu_fifo_peek
     /tmp/cc5fbsfm.s:2228   .text.tu_fifo_peek_n:0000000000000000 $t
     /tmp/cc5fbsfm.s:2235   .text.tu_fifo_peek_n:0000000000000000 tu_fifo_peek_n
     /tmp/cc5fbsfm.s:2276   .text.tu_fifo_write:0000000000000000 $t
     /tmp/cc5fbsfm.s:2283   .text.tu_fifo_write:0000000000000000 tu_fifo_write
     /tmp/cc5fbsfm.s:2395   .text.tu_fifo_write_n:0000000000000000 $t
     /tmp/cc5fbsfm.s:2402   .text.tu_fifo_write_n:0000000000000000 tu_fifo_write_n
     /tmp/cc5fbsfm.s:2426   .text.tu_fifo_write_n_const_addr_full_words:0000000000000000 $t
     /tmp/cc5fbsfm.s:2433   .text.tu_fifo_write_n_const_addr_full_words:0000000000000000 tu_fifo_write_n_const_addr_full_words
     /tmp/cc5fbsfm.s:2457   .text.tu_fifo_clear:0000000000000000 $t
     /tmp/cc5fbsfm.s:2464   .text.tu_fifo_clear:0000000000000000 tu_fifo_clear
     /tmp/cc5fbsfm.s:2493   .text.tu_fifo_set_overwritable:0000000000000000 $t
     /tmp/cc5fbsfm.s:2500   .text.tu_fifo_set_overwritable:0000000000000000 tu_fifo_set_overwritable
     /tmp/cc5fbsfm.s:2529   .text.tu_fifo_advance_write_pointer:0000000000000000 $t
     /tmp/cc5fbsfm.s:2536   .text.tu_fifo_advance_write_pointer:0000000000000000 tu_fifo_advance_write_pointer
     /tmp/cc5fbsfm.s:2571   .text.tu_fifo_advance_read_pointer:0000000000000000 $t
ARM GAS  /tmp/cc5fbsfm.s 			page 89


     /tmp/cc5fbsfm.s:2578   .text.tu_fifo_advance_read_pointer:0000000000000000 tu_fifo_advance_read_pointer
     /tmp/cc5fbsfm.s:2613   .text.tu_fifo_get_read_info:0000000000000000 $t
     /tmp/cc5fbsfm.s:2620   .text.tu_fifo_get_read_info:0000000000000000 tu_fifo_get_read_info
     /tmp/cc5fbsfm.s:2847   .text.tu_fifo_get_write_info:0000000000000000 $t
     /tmp/cc5fbsfm.s:2854   .text.tu_fifo_get_write_info:0000000000000000 tu_fifo_get_write_info

UNDEFINED SYMBOLS
memcpy
